
FroboLightHouse_SW.elf:     file format elf32-avr

Sections:
Idx Name          Size      VMA       LMA       File off  Algn
  0 .text         00001076  00000000  00000000  00000074  2**1
                  CONTENTS, ALLOC, LOAD, READONLY, CODE
  1 .bss          0000022e  00800100  00800100  000010ea  2**0
                  ALLOC
  2 .debug_aranges 00000080  00000000  00000000  000010ea  2**0
                  CONTENTS, READONLY, DEBUGGING
  3 .debug_pubnames 00000706  00000000  00000000  0000116a  2**0
                  CONTENTS, READONLY, DEBUGGING
  4 .debug_info   00000d02  00000000  00000000  00001870  2**0
                  CONTENTS, READONLY, DEBUGGING
  5 .debug_abbrev 0000043f  00000000  00000000  00002572  2**0
                  CONTENTS, READONLY, DEBUGGING
  6 .debug_line   00000ff2  00000000  00000000  000029b1  2**0
                  CONTENTS, READONLY, DEBUGGING
  7 .debug_frame  000002b0  00000000  00000000  000039a4  2**2
                  CONTENTS, READONLY, DEBUGGING
  8 .debug_str    00000536  00000000  00000000  00003c54  2**0
                  CONTENTS, READONLY, DEBUGGING
  9 .debug_loc    00000413  00000000  00000000  0000418a  2**0
                  CONTENTS, READONLY, DEBUGGING
 10 .debug_ranges 00000018  00000000  00000000  0000459d  2**0
                  CONTENTS, READONLY, DEBUGGING

Disassembly of section .text:

00000000 <__vectors>:
       0:	0c 94 4a 00 	jmp	0x94	; 0x94 <__ctors_end>
       4:	0c 94 69 00 	jmp	0xd2	; 0xd2 <__bad_interrupt>
       8:	0c 94 69 00 	jmp	0xd2	; 0xd2 <__bad_interrupt>
       c:	0c 94 69 00 	jmp	0xd2	; 0xd2 <__bad_interrupt>
      10:	0c 94 69 00 	jmp	0xd2	; 0xd2 <__bad_interrupt>
      14:	0c 94 69 00 	jmp	0xd2	; 0xd2 <__bad_interrupt>
      18:	0c 94 69 00 	jmp	0xd2	; 0xd2 <__bad_interrupt>
      1c:	0c 94 69 00 	jmp	0xd2	; 0xd2 <__bad_interrupt>
      20:	0c 94 69 00 	jmp	0xd2	; 0xd2 <__bad_interrupt>
      24:	0c 94 69 00 	jmp	0xd2	; 0xd2 <__bad_interrupt>
      28:	0c 94 69 00 	jmp	0xd2	; 0xd2 <__bad_interrupt>
      2c:	0c 94 69 00 	jmp	0xd2	; 0xd2 <__bad_interrupt>
      30:	0c 94 69 00 	jmp	0xd2	; 0xd2 <__bad_interrupt>
      34:	0c 94 69 00 	jmp	0xd2	; 0xd2 <__bad_interrupt>
      38:	0c 94 69 00 	jmp	0xd2	; 0xd2 <__bad_interrupt>
      3c:	0c 94 69 00 	jmp	0xd2	; 0xd2 <__bad_interrupt>
      40:	0c 94 d4 01 	jmp	0x3a8	; 0x3a8 <__vector_16>
      44:	0c 94 69 00 	jmp	0xd2	; 0xd2 <__bad_interrupt>
      48:	0c 94 69 00 	jmp	0xd2	; 0xd2 <__bad_interrupt>
      4c:	0c 94 69 00 	jmp	0xd2	; 0xd2 <__bad_interrupt>
      50:	0c 94 69 00 	jmp	0xd2	; 0xd2 <__bad_interrupt>
      54:	0c 94 69 00 	jmp	0xd2	; 0xd2 <__bad_interrupt>
      58:	0c 94 69 00 	jmp	0xd2	; 0xd2 <__bad_interrupt>
      5c:	0c 94 69 00 	jmp	0xd2	; 0xd2 <__bad_interrupt>
      60:	0c 94 69 00 	jmp	0xd2	; 0xd2 <__bad_interrupt>
      64:	0c 94 e5 01 	jmp	0x3ca	; 0x3ca <__vector_25>
      68:	0c 94 69 00 	jmp	0xd2	; 0xd2 <__bad_interrupt>
      6c:	0c 94 69 00 	jmp	0xd2	; 0xd2 <__bad_interrupt>
      70:	0c 94 69 00 	jmp	0xd2	; 0xd2 <__bad_interrupt>
      74:	0c 94 69 00 	jmp	0xd2	; 0xd2 <__bad_interrupt>
      78:	0c 94 69 00 	jmp	0xd2	; 0xd2 <__bad_interrupt>
      7c:	0c 94 69 00 	jmp	0xd2	; 0xd2 <__bad_interrupt>
      80:	0c 94 8d 00 	jmp	0x11a	; 0x11a <__vector_32>
      84:	0c 94 69 00 	jmp	0xd2	; 0xd2 <__bad_interrupt>
      88:	0c 94 c3 00 	jmp	0x186	; 0x186 <__vector_34>
      8c:	0c 94 69 00 	jmp	0xd2	; 0xd2 <__bad_interrupt>
      90:	0c 94 69 00 	jmp	0xd2	; 0xd2 <__bad_interrupt>

00000094 <__ctors_end>:
      94:	11 24       	eor	r1, r1
      96:	1f be       	out	0x3f, r1	; 63
      98:	cf ef       	ldi	r28, 0xFF	; 255
      9a:	d0 e1       	ldi	r29, 0x10	; 16
      9c:	de bf       	out	0x3e, r29	; 62
      9e:	cd bf       	out	0x3d, r28	; 61

000000a0 <__do_copy_data>:
      a0:	11 e0       	ldi	r17, 0x01	; 1
      a2:	a0 e0       	ldi	r26, 0x00	; 0
      a4:	b1 e0       	ldi	r27, 0x01	; 1
      a6:	e6 e7       	ldi	r30, 0x76	; 118
      a8:	f0 e1       	ldi	r31, 0x10	; 16
      aa:	00 e0       	ldi	r16, 0x00	; 0
      ac:	0b bf       	out	0x3b, r16	; 59
      ae:	02 c0       	rjmp	.+4      	; 0xb4 <__do_copy_data+0x14>
      b0:	07 90       	elpm	r0, Z+
      b2:	0d 92       	st	X+, r0
      b4:	a0 30       	cpi	r26, 0x00	; 0
      b6:	b1 07       	cpc	r27, r17
      b8:	d9 f7       	brne	.-10     	; 0xb0 <__do_copy_data+0x10>

000000ba <__do_clear_bss>:
      ba:	13 e0       	ldi	r17, 0x03	; 3
      bc:	a0 e0       	ldi	r26, 0x00	; 0
      be:	b1 e0       	ldi	r27, 0x01	; 1
      c0:	01 c0       	rjmp	.+2      	; 0xc4 <.do_clear_bss_start>

000000c2 <.do_clear_bss_loop>:
      c2:	1d 92       	st	X+, r1

000000c4 <.do_clear_bss_start>:
      c4:	ae 32       	cpi	r26, 0x2E	; 46
      c6:	b1 07       	cpc	r27, r17
      c8:	e1 f7       	brne	.-8      	; 0xc2 <.do_clear_bss_loop>
      ca:	0e 94 5d 04 	call	0x8ba	; 0x8ba <main>
      ce:	0c 94 39 08 	jmp	0x1072	; 0x1072 <_exit>

000000d2 <__bad_interrupt>:
      d2:	0c 94 00 00 	jmp	0	; 0x0 <__vectors>

000000d6 <serial_init>:

/***************************************************************************/
void serial_init(void)
{
	/* enable tx and rx */
	UCSRB_REG = (1<<TXEN_BIT)|(1<<RXEN_BIT);
      d6:	e9 ec       	ldi	r30, 0xC9	; 201
      d8:	f0 e0       	ldi	r31, 0x00	; 0
      da:	88 e1       	ldi	r24, 0x18	; 24
      dc:	80 83       	st	Z, r24

	/* set baud rate */
	UBRRH_REG = (unsigned char) ((UBRR)>>8);
      de:	10 92 cd 00 	sts	0x00CD, r1
	UBRRL_REG = (unsigned char) (UBRR); /* remember the ()! */
      e2:	80 e1       	ldi	r24, 0x10	; 16
      e4:	80 93 cc 00 	sts	0x00CC, r24

	/* asynchronous 8N1 */
	UCSRC_REG = (1<<UCSZ0_BIT)|(1<<UCSZ1_BIT);
      e8:	86 e0       	ldi	r24, 0x06	; 6
      ea:	80 93 ca 00 	sts	0x00CA, r24
#ifdef DOUBLE_SPEED_MODE
	UCSRA_REG |= U2X_BIT;
#endif

	/* init rx  */
	UCSRB_REG |= (1 << RXCIE_BIT);
      ee:	80 81       	ld	r24, Z
      f0:	80 68       	ori	r24, 0x80	; 128
      f2:	80 83       	st	Z, r24
	ib_head = 0;
      f4:	10 92 55 01 	sts	0x0155, r1
      f8:	10 92 54 01 	sts	0x0154, r1
	ib_tail = 0;
      fc:	10 92 02 01 	sts	0x0102, r1
     100:	10 92 01 01 	sts	0x0101, r1

	/* init tx */
	ob_head = 0;
     104:	10 92 a9 01 	sts	0x01A9, r1
     108:	10 92 a8 01 	sts	0x01A8, r1
	ob_tail = 0;
     10c:	10 92 57 01 	sts	0x0157, r1
     110:	10 92 56 01 	sts	0x0156, r1
	tx_busy = FALSE;
     114:	10 92 53 01 	sts	0x0153, r1
}
     118:	08 95       	ret

0000011a <__vector_32>:
	ISR (USART0_RX_vect)
#endif
#ifdef USART_1
	ISR (USART1_RX_vect)
#endif
{
     11a:	1f 92       	push	r1
     11c:	0f 92       	push	r0
     11e:	0f b6       	in	r0, 0x3f	; 63
     120:	0f 92       	push	r0
     122:	0b b6       	in	r0, 0x3b	; 59
     124:	0f 92       	push	r0
     126:	11 24       	eor	r1, r1
     128:	8f 93       	push	r24
     12a:	9f 93       	push	r25
     12c:	ef 93       	push	r30
     12e:	ff 93       	push	r31
	ib_head++;
     130:	80 91 54 01 	lds	r24, 0x0154
     134:	90 91 55 01 	lds	r25, 0x0155
     138:	01 96       	adiw	r24, 0x01	; 1
     13a:	90 93 55 01 	sts	0x0155, r25
     13e:	80 93 54 01 	sts	0x0154, r24
	if (ib_head == IB_MAX)
     142:	80 35       	cpi	r24, 0x50	; 80
     144:	91 05       	cpc	r25, r1
     146:	21 f4       	brne	.+8      	; 0x150 <__vector_32+0x36>
		ib_head = 0;
     148:	10 92 55 01 	sts	0x0155, r1
     14c:	10 92 54 01 	sts	0x0154, r1
	if (ib_head != ib_tail) /* do not add if buffer overrun */
     150:	e0 91 54 01 	lds	r30, 0x0154
     154:	f0 91 55 01 	lds	r31, 0x0155
     158:	80 91 01 01 	lds	r24, 0x0101
     15c:	90 91 02 01 	lds	r25, 0x0102
     160:	e8 17       	cp	r30, r24
     162:	f9 07       	cpc	r31, r25
     164:	29 f0       	breq	.+10     	; 0x170 <__vector_32+0x56>
		ib[ib_head] = UDR_REG;
     166:	80 91 ce 00 	lds	r24, 0x00CE
     16a:	ed 5f       	subi	r30, 0xFD	; 253
     16c:	fe 4f       	sbci	r31, 0xFE	; 254
     16e:	80 83       	st	Z, r24
}
     170:	ff 91       	pop	r31
     172:	ef 91       	pop	r30
     174:	9f 91       	pop	r25
     176:	8f 91       	pop	r24
     178:	0f 90       	pop	r0
     17a:	0b be       	out	0x3b, r0	; 59
     17c:	0f 90       	pop	r0
     17e:	0f be       	out	0x3f, r0	; 63
     180:	0f 90       	pop	r0
     182:	1f 90       	pop	r1
     184:	18 95       	reti

00000186 <__vector_34>:
	ISR (USART0_TX_vect)
#endif
#ifdef USART_1
	ISR (USART1_TX_vect)
#endif
{
     186:	1f 92       	push	r1
     188:	0f 92       	push	r0
     18a:	0f b6       	in	r0, 0x3f	; 63
     18c:	0f 92       	push	r0
     18e:	0b b6       	in	r0, 0x3b	; 59
     190:	0f 92       	push	r0
     192:	11 24       	eor	r1, r1
     194:	2f 93       	push	r18
     196:	3f 93       	push	r19
     198:	8f 93       	push	r24
     19a:	9f 93       	push	r25
     19c:	ef 93       	push	r30
     19e:	ff 93       	push	r31
	if (ob_head != ob_tail) /* if buffer is not empty */
     1a0:	20 91 56 01 	lds	r18, 0x0156
     1a4:	30 91 57 01 	lds	r19, 0x0157
     1a8:	80 91 a8 01 	lds	r24, 0x01A8
     1ac:	90 91 a9 01 	lds	r25, 0x01A9
     1b0:	82 17       	cp	r24, r18
     1b2:	93 07       	cpc	r25, r19
     1b4:	b9 f0       	breq	.+46     	; 0x1e4 <__vector_34+0x5e>
	{
		ob_tail++; /* increment the buffer tail */ 
     1b6:	c9 01       	movw	r24, r18
     1b8:	01 96       	adiw	r24, 0x01	; 1
     1ba:	90 93 57 01 	sts	0x0157, r25
     1be:	80 93 56 01 	sts	0x0156, r24
		if (ob_tail == OB_MAX)
     1c2:	80 35       	cpi	r24, 0x50	; 80
     1c4:	91 05       	cpc	r25, r1
     1c6:	21 f4       	brne	.+8      	; 0x1d0 <__vector_34+0x4a>
			ob_tail = 0;
     1c8:	10 92 57 01 	sts	0x0157, r1
     1cc:	10 92 56 01 	sts	0x0156, r1
		UDR_REG = ob[ob_tail]; /* send the char */
     1d0:	e0 91 56 01 	lds	r30, 0x0156
     1d4:	f0 91 57 01 	lds	r31, 0x0157
     1d8:	e8 5a       	subi	r30, 0xA8	; 168
     1da:	fe 4f       	sbci	r31, 0xFE	; 254
     1dc:	80 81       	ld	r24, Z
     1de:	80 93 ce 00 	sts	0x00CE, r24
     1e2:	07 c0       	rjmp	.+14     	; 0x1f2 <__vector_34+0x6c>
	}
	else
	{
		UCSRB_REG &= ~(1<<TXCIE_BIT); /* disable tx interrupt */
     1e4:	80 91 c9 00 	lds	r24, 0x00C9
     1e8:	8f 7b       	andi	r24, 0xBF	; 191
     1ea:	80 93 c9 00 	sts	0x00C9, r24
		tx_busy = FALSE;
     1ee:	10 92 53 01 	sts	0x0153, r1
	}
}
     1f2:	ff 91       	pop	r31
     1f4:	ef 91       	pop	r30
     1f6:	9f 91       	pop	r25
     1f8:	8f 91       	pop	r24
     1fa:	3f 91       	pop	r19
     1fc:	2f 91       	pop	r18
     1fe:	0f 90       	pop	r0
     200:	0b be       	out	0x3b, r0	; 59
     202:	0f 90       	pop	r0
     204:	0f be       	out	0x3f, r0	; 63
     206:	0f 90       	pop	r0
     208:	1f 90       	pop	r1
     20a:	18 95       	reti

0000020c <serial_tx_init>:
/***************************************************************************/
void serial_tx_init ()
{
	if (ob_head != ob_tail) /* if buffer is not empty */
     20c:	20 91 56 01 	lds	r18, 0x0156
     210:	30 91 57 01 	lds	r19, 0x0157
     214:	80 91 a8 01 	lds	r24, 0x01A8
     218:	90 91 a9 01 	lds	r25, 0x01A9
     21c:	82 17       	cp	r24, r18
     21e:	93 07       	cpc	r25, r19
     220:	f1 f0       	breq	.+60     	; 0x25e <serial_tx_init+0x52>
	{
		tx_busy = TRUE;
     222:	81 e0       	ldi	r24, 0x01	; 1
     224:	80 93 53 01 	sts	0x0153, r24
		UCSRB_REG |= (1 << TXCIE_BIT); /* enable tx interrupt */
     228:	80 91 c9 00 	lds	r24, 0x00C9
     22c:	80 64       	ori	r24, 0x40	; 64
     22e:	80 93 c9 00 	sts	0x00C9, r24

		ob_tail++; /* increment the buffer tail */ 
     232:	c9 01       	movw	r24, r18
     234:	01 96       	adiw	r24, 0x01	; 1
     236:	90 93 57 01 	sts	0x0157, r25
     23a:	80 93 56 01 	sts	0x0156, r24
		if (ob_tail == OB_MAX)
     23e:	80 35       	cpi	r24, 0x50	; 80
     240:	91 05       	cpc	r25, r1
     242:	21 f4       	brne	.+8      	; 0x24c <serial_tx_init+0x40>
			ob_tail = 0;
     244:	10 92 57 01 	sts	0x0157, r1
     248:	10 92 56 01 	sts	0x0156, r1
		UDR_REG = ob[ob_tail]; /* send the char */
     24c:	e0 91 56 01 	lds	r30, 0x0156
     250:	f0 91 57 01 	lds	r31, 0x0157
     254:	e8 5a       	subi	r30, 0xA8	; 168
     256:	fe 4f       	sbci	r31, 0xFE	; 254
     258:	80 81       	ld	r24, Z
     25a:	80 93 ce 00 	sts	0x00CE, r24
     25e:	08 95       	ret

00000260 <serial_tx>:
	}
}
/***************************************************************************/
void serial_tx (unsigned char c)
{
     260:	28 2f       	mov	r18, r24
	ob_head++;
     262:	80 91 a8 01 	lds	r24, 0x01A8
     266:	90 91 a9 01 	lds	r25, 0x01A9
     26a:	01 96       	adiw	r24, 0x01	; 1
     26c:	90 93 a9 01 	sts	0x01A9, r25
     270:	80 93 a8 01 	sts	0x01A8, r24
	if (ob_head == OB_MAX)
     274:	80 35       	cpi	r24, 0x50	; 80
     276:	91 05       	cpc	r25, r1
     278:	21 f4       	brne	.+8      	; 0x282 <serial_tx+0x22>
		ob_head = 0;
     27a:	10 92 a9 01 	sts	0x01A9, r1
     27e:	10 92 a8 01 	sts	0x01A8, r1
	if (ob_head != ob_tail) /* do not add if buffer overrun */
     282:	e0 91 a8 01 	lds	r30, 0x01A8
     286:	f0 91 a9 01 	lds	r31, 0x01A9
     28a:	80 91 56 01 	lds	r24, 0x0156
     28e:	90 91 57 01 	lds	r25, 0x0157
     292:	e8 17       	cp	r30, r24
     294:	f9 07       	cpc	r31, r25
     296:	19 f0       	breq	.+6      	; 0x29e <serial_tx+0x3e>
		ob[ob_head] = c;
     298:	e8 5a       	subi	r30, 0xA8	; 168
     29a:	fe 4f       	sbci	r31, 0xFE	; 254
     29c:	20 83       	st	Z, r18

	if (tx_busy == FALSE)
     29e:	80 91 53 01 	lds	r24, 0x0153
     2a2:	88 23       	and	r24, r24
     2a4:	11 f4       	brne	.+4      	; 0x2aa <serial_tx+0x4a>
		serial_tx_init();
     2a6:	0e 94 06 01 	call	0x20c	; 0x20c <serial_tx_init>
     2aa:	08 95       	ret

000002ac <serial_tx_direct>:
}
/***************************************************************************/
void serial_tx_direct (unsigned char c)
{
     2ac:	98 2f       	mov	r25, r24
	/* wait for an empty transmit buffer */
	while ( !(UCSRA_REG & (1<<UDRE_BIT))) /* check Data Register Empty bit */
     2ae:	80 91 c8 00 	lds	r24, 0x00C8
     2b2:	85 ff       	sbrs	r24, 5
     2b4:	fc cf       	rjmp	.-8      	; 0x2ae <serial_tx_direct+0x2>
		;
	UDR_REG = c; /* fill Data Register */
     2b6:	90 93 ce 00 	sts	0x00CE, r25
}
     2ba:	08 95       	ret

000002bc <serial_tx_string>:
/***************************************************************************/
void serial_tx_string (char *s)
{
     2bc:	dc 01       	movw	r26, r24
     2be:	29 c0       	rjmp	.+82     	; 0x312 <serial_tx_string+0x56>
	char err = 0;

	while (err == 0 && *s != 0)
	{
		ob_head++;
     2c0:	80 91 a8 01 	lds	r24, 0x01A8
     2c4:	90 91 a9 01 	lds	r25, 0x01A9
     2c8:	01 96       	adiw	r24, 0x01	; 1
     2ca:	90 93 a9 01 	sts	0x01A9, r25
     2ce:	80 93 a8 01 	sts	0x01A8, r24
		if (ob_head == OB_MAX)
     2d2:	80 35       	cpi	r24, 0x50	; 80
     2d4:	91 05       	cpc	r25, r1
     2d6:	21 f4       	brne	.+8      	; 0x2e0 <serial_tx_string+0x24>
			ob_head = 0;
     2d8:	10 92 a9 01 	sts	0x01A9, r1
     2dc:	10 92 a8 01 	sts	0x01A8, r1
		if (ob_head != ob_tail) /* do not add if buffer overrun */
     2e0:	e0 91 a8 01 	lds	r30, 0x01A8
     2e4:	f0 91 a9 01 	lds	r31, 0x01A9
     2e8:	80 91 56 01 	lds	r24, 0x0156
     2ec:	90 91 57 01 	lds	r25, 0x0157
     2f0:	e8 17       	cp	r30, r24
     2f2:	f9 07       	cpc	r31, r25
     2f4:	29 f0       	breq	.+10     	; 0x300 <serial_tx_string+0x44>
			ob[ob_head] = *s;
     2f6:	e8 5a       	subi	r30, 0xA8	; 168
     2f8:	fe 4f       	sbci	r31, 0xFE	; 254
     2fa:	8d 91       	ld	r24, X+
     2fc:	80 83       	st	Z, r24
     2fe:	09 c0       	rjmp	.+18     	; 0x312 <serial_tx_string+0x56>
		else
		{
			err = 1;
			ob_head = 0;
     300:	10 92 a9 01 	sts	0x01A9, r1
     304:	10 92 a8 01 	sts	0x01A8, r1
			ob_tail = 0;
     308:	10 92 57 01 	sts	0x0157, r1
     30c:	10 92 56 01 	sts	0x0156, r1
     310:	03 c0       	rjmp	.+6      	; 0x318 <serial_tx_string+0x5c>
/***************************************************************************/
void serial_tx_string (char *s)
{
	char err = 0;

	while (err == 0 && *s != 0)
     312:	8c 91       	ld	r24, X
     314:	88 23       	and	r24, r24
     316:	a1 f6       	brne	.-88     	; 0x2c0 <serial_tx_string+0x4>
			ob_tail = 0;
		}
		s++; /* go to next char in s */
	}

	if (tx_busy == FALSE)
     318:	80 91 53 01 	lds	r24, 0x0153
     31c:	88 23       	and	r24, r24
     31e:	11 f4       	brne	.+4      	; 0x324 <serial_tx_string+0x68>
		serial_tx_init();
     320:	0e 94 06 01 	call	0x20c	; 0x20c <serial_tx_init>
     324:	08 95       	ret

00000326 <serial_tx_idle>:
}
/***************************************************************************/
unsigned char serial_tx_idle (void)
{
	/* test if no transmission is in progress */
	return (UCSRA_REG & (1<<TXC_BIT)); /* check Transmit Complete bit */
     326:	80 91 c8 00 	lds	r24, 0x00C8
}
     32a:	80 74       	andi	r24, 0x40	; 64
     32c:	08 95       	ret

0000032e <serial_rx_avail>:
/***************************************************************************/
unsigned char serial_rx_avail (void)
{
     32e:	40 e0       	ldi	r20, 0x00	; 0
     330:	20 91 54 01 	lds	r18, 0x0154
     334:	30 91 55 01 	lds	r19, 0x0155
     338:	80 91 01 01 	lds	r24, 0x0101
     33c:	90 91 02 01 	lds	r25, 0x0102
     340:	28 17       	cp	r18, r24
     342:	39 07       	cpc	r19, r25
     344:	09 f0       	breq	.+2      	; 0x348 <serial_rx_avail+0x1a>
     346:	41 e0       	ldi	r20, 0x01	; 1
	/* return true if there is a character in the input buffer */
	return (ib_head != ib_tail); 
}
     348:	84 2f       	mov	r24, r20
     34a:	08 95       	ret

0000034c <serial_rx>:
/***************************************************************************/
unsigned char serial_rx (void)
{
	/* return next char in buffer */
	ib_tail++;
     34c:	80 91 01 01 	lds	r24, 0x0101
     350:	90 91 02 01 	lds	r25, 0x0102
     354:	01 96       	adiw	r24, 0x01	; 1
     356:	90 93 02 01 	sts	0x0102, r25
     35a:	80 93 01 01 	sts	0x0101, r24
	if (ib_tail == IB_MAX)
     35e:	80 35       	cpi	r24, 0x50	; 80
     360:	91 05       	cpc	r25, r1
     362:	21 f4       	brne	.+8      	; 0x36c <serial_rx+0x20>
		ib_tail = 0;
     364:	10 92 02 01 	sts	0x0102, r1
     368:	10 92 01 01 	sts	0x0101, r1
     36c:	e0 91 01 01 	lds	r30, 0x0101
     370:	f0 91 02 01 	lds	r31, 0x0102
     374:	ed 5f       	subi	r30, 0xFD	; 253
     376:	fe 4f       	sbci	r31, 0xFE	; 254
	return (ib[ib_tail]);
}
     378:	80 81       	ld	r24, Z
     37a:	08 95       	ret

0000037c <serial_rx_flush>:
/***************************************************************************/
void serial_rx_flush (void)
{
     37c:	02 c0       	rjmp	.+4      	; 0x382 <serial_rx_flush+0x6>
	unsigned char c;
	while (UCSRA_REG & (1<<RXC_BIT))
		c = UDR_REG;
     37e:	80 91 ce 00 	lds	r24, 0x00CE
}
/***************************************************************************/
void serial_rx_flush (void)
{
	unsigned char c;
	while (UCSRA_REG & (1<<RXC_BIT))
     382:	80 91 c8 00 	lds	r24, 0x00C8
     386:	87 fd       	sbrc	r24, 7
     388:	fa cf       	rjmp	.-12     	; 0x37e <serial_rx_flush+0x2>
		c = UDR_REG;
}
     38a:	08 95       	ret

0000038c <sched_init>:

/***************************************************************************/
void sched_init(void)
{
	/* timer 0 interrupt init (each 1ms) */
	t1ms = 0;
     38c:	10 92 bc 01 	sts	0x01BC, r1
	t1ms_cnt = 0;
     390:	10 92 ac 01 	sts	0x01AC, r1
     394:	10 92 ab 01 	sts	0x01AB, r1
    TIMSK0 = BV(OCIE0A); 
     398:	82 e0       	ldi	r24, 0x02	; 2
     39a:	80 93 6e 00 	sts	0x006E, r24
    TCCR0A = BV(CS00) | BV(CS01) | BV(WGM01); /* clk/64, TOS is defined as OCR0A */  
     39e:	8b e0       	ldi	r24, 0x0B	; 11
     3a0:	84 bd       	out	0x24, r24	; 36
    OCR0A = INT0_CNT_TOP;
     3a2:	89 ef       	ldi	r24, 0xF9	; 249
     3a4:	87 bd       	out	0x27, r24	; 39
	/* PB_OUT (FLIPBIT_DDR, FLIPBIT); */ /* set 1ms flipbit as output */
}
     3a6:	08 95       	ret

000003a8 <__vector_16>:
/***************************************************************************/
/*ISR(SIG_OUTPUT_COMPARE0A) */
ISR (TIMER0_COMP_vect)
{
     3a8:	1f 92       	push	r1
     3aa:	0f 92       	push	r0
     3ac:	0f b6       	in	r0, 0x3f	; 63
     3ae:	0f 92       	push	r0
     3b0:	11 24       	eor	r1, r1
     3b2:	8f 93       	push	r24
	t1ms++;
     3b4:	80 91 bc 01 	lds	r24, 0x01BC
     3b8:	8f 5f       	subi	r24, 0xFF	; 255
     3ba:	80 93 bc 01 	sts	0x01BC, r24
	/* PB_FLIP (FLIPBIT_PORT, FLIPBIT); */ /* time to flip the flip bit */
}
     3be:	8f 91       	pop	r24
     3c0:	0f 90       	pop	r0
     3c2:	0f be       	out	0x3f, r0	; 63
     3c4:	0f 90       	pop	r0
     3c6:	1f 90       	pop	r1
     3c8:	18 95       	reti

000003ca <__vector_25>:
/***************************************************************************/
/* ADC interrupt handler */
ISR (ADC_vect)
{
     3ca:	1f 92       	push	r1
     3cc:	0f 92       	push	r0
     3ce:	0f b6       	in	r0, 0x3f	; 63
     3d0:	0f 92       	push	r0
     3d2:	0b b6       	in	r0, 0x3b	; 59
     3d4:	0f 92       	push	r0
     3d6:	11 24       	eor	r1, r1
     3d8:	2f 93       	push	r18
     3da:	3f 93       	push	r19
     3dc:	4f 93       	push	r20
     3de:	8f 93       	push	r24
     3e0:	9f 93       	push	r25
     3e2:	ef 93       	push	r30
     3e4:	ff 93       	push	r31
	adc_data[adc_ch] = ((ADCL) | ((ADCH)<<8)); /* read value */
     3e6:	e0 91 ca 01 	lds	r30, 0x01CA
     3ea:	f0 e0       	ldi	r31, 0x00	; 0
     3ec:	20 91 78 00 	lds	r18, 0x0078
     3f0:	40 91 79 00 	lds	r20, 0x0079
     3f4:	94 2f       	mov	r25, r20
     3f6:	80 e0       	ldi	r24, 0x00	; 0
     3f8:	30 e0       	ldi	r19, 0x00	; 0
     3fa:	82 2b       	or	r24, r18
     3fc:	93 2b       	or	r25, r19
     3fe:	ee 0f       	add	r30, r30
     400:	ff 1f       	adc	r31, r31
     402:	eb 52       	subi	r30, 0x2B	; 43
     404:	fe 4f       	sbci	r31, 0xFE	; 254
     406:	91 83       	std	Z+1, r25	; 0x01
     408:	80 83       	st	Z, r24
	if (++adc_ch >= ADC_NUM) /* go to next adc channel */
     40a:	80 91 ca 01 	lds	r24, 0x01CA
     40e:	8f 5f       	subi	r24, 0xFF	; 255
     410:	80 93 ca 01 	sts	0x01CA, r24
     414:	80 91 ca 01 	lds	r24, 0x01CA
     418:	83 30       	cpi	r24, 0x03	; 3
     41a:	10 f0       	brcs	.+4      	; 0x420 <__vector_25+0x56>
		adc_ch = 0;
     41c:	10 92 ca 01 	sts	0x01CA, r1
	ADMUX = (1<<REFS0) | adc_ports[adc_ch];
     420:	e0 91 ca 01 	lds	r30, 0x01CA
     424:	f0 e0       	ldi	r31, 0x00	; 0
     426:	e4 53       	subi	r30, 0x34	; 52
     428:	fe 4f       	sbci	r31, 0xFE	; 254
     42a:	80 81       	ld	r24, Z
     42c:	80 64       	ori	r24, 0x40	; 64
     42e:	80 93 7c 00 	sts	0x007C, r24
	ADCSRA |= (1<<ADSC);  /* request a new adc conversion */
     432:	80 91 7a 00 	lds	r24, 0x007A
     436:	80 64       	ori	r24, 0x40	; 64
     438:	80 93 7a 00 	sts	0x007A, r24
}
     43c:	ff 91       	pop	r31
     43e:	ef 91       	pop	r30
     440:	9f 91       	pop	r25
     442:	8f 91       	pop	r24
     444:	4f 91       	pop	r20
     446:	3f 91       	pop	r19
     448:	2f 91       	pop	r18
     44a:	0f 90       	pop	r0
     44c:	0b be       	out	0x3b, r0	; 59
     44e:	0f 90       	pop	r0
     450:	0f be       	out	0x3f, r0	; 63
     452:	0f 90       	pop	r0
     454:	1f 90       	pop	r1
     456:	18 95       	reti

00000458 <FroboLightHouse_Init>:
/***************************************************************************/
/* Setup of port used for the Actuator */
void FroboLightHouse_Init (void)
{
	DDRA = 	0b00001111;  //Pin 0, 1, 2 and 3 of PORTA declared as input
     458:	8f e0       	ldi	r24, 0x0F	; 15
     45a:	81 b9       	out	0x01, r24	; 1
	PORTA= 	0x00;			//No pullup
     45c:	12 b8       	out	0x02, r1	; 2
}
     45e:	08 95       	ret

00000460 <adc_init>:

/***************************************************************************/
void adc_init (void)
{
	adc_ch = 0;
     460:	10 92 ca 01 	sts	0x01CA, r1
	adc_ports[0] = ADC_PORT_VOLT; /* map voltage measurement to ADC0 */
     464:	10 92 cc 01 	sts	0x01CC, r1
	adc_ports[1] = ADC_PORT_IN1; /* map analog in 1 to ADC1 */
     468:	81 e0       	ldi	r24, 0x01	; 1
     46a:	80 93 cd 01 	sts	0x01CD, r24
	adc_ports[2] = ADC_PORT_IN2; /* map analog in 2 to ADC2 */
     46e:	82 e0       	ldi	r24, 0x02	; 2
     470:	80 93 ce 01 	sts	0x01CE, r24

	ADCSRA = BV(ADEN); /* enable ADC conversion */
     474:	aa e7       	ldi	r26, 0x7A	; 122
     476:	b0 e0       	ldi	r27, 0x00	; 0
     478:	80 e8       	ldi	r24, 0x80	; 128
     47a:	8c 93       	st	X, r24
	ADCSRA |= (BV(ADPS2) | BV(ADPS1) | BV(ADPS0)); /* div by 128 presc. */
     47c:	8c 91       	ld	r24, X
     47e:	87 60       	ori	r24, 0x07	; 7
     480:	8c 93       	st	X, r24
	ADCSRA |= BV(ADIE); /* interrupt enable */
     482:	8c 91       	ld	r24, X
     484:	88 60       	ori	r24, 0x08	; 8
     486:	8c 93       	st	X, r24
	ADMUX = BV(REFS0)| adc_ports[adc_ch]; /* Voltage reference is AREF) */
     488:	e0 91 ca 01 	lds	r30, 0x01CA
     48c:	f0 e0       	ldi	r31, 0x00	; 0
     48e:	e4 53       	subi	r30, 0x34	; 52
     490:	fe 4f       	sbci	r31, 0xFE	; 254
     492:	80 81       	ld	r24, Z
     494:	80 64       	ori	r24, 0x40	; 64
     496:	80 93 7c 00 	sts	0x007C, r24
	ADCSRA |= BV(ADSC); /* request ADC conversion */
     49a:	8c 91       	ld	r24, X
     49c:	80 64       	ori	r24, 0x40	; 64
     49e:	8c 93       	st	X, r24
}
     4a0:	08 95       	ret

000004a2 <voltage_update>:
/***************************************************************************/
void voltage_update(void)
{
		if (battery_low_warning == false && voltage < voltage_min)
     4a2:	80 91 d4 01 	lds	r24, 0x01D4
     4a6:	88 23       	and	r24, r24
     4a8:	79 f4       	brne	.+30     	; 0x4c8 <voltage_update+0x26>
     4aa:	20 91 c4 01 	lds	r18, 0x01C4
     4ae:	30 91 c5 01 	lds	r19, 0x01C5
     4b2:	80 91 c8 01 	lds	r24, 0x01C8
     4b6:	90 91 c9 01 	lds	r25, 0x01C9
     4ba:	28 17       	cp	r18, r24
     4bc:	39 07       	cpc	r19, r25
     4be:	98 f4       	brcc	.+38     	; 0x4e6 <voltage_update+0x44>
			battery_low_warning = true;
     4c0:	81 e0       	ldi	r24, 0x01	; 1
     4c2:	80 93 d4 01 	sts	0x01D4, r24
     4c6:	08 95       	ret
		else if (battery_low_warning == true && voltage >= voltage_min)
     4c8:	81 30       	cpi	r24, 0x01	; 1
     4ca:	69 f4       	brne	.+26     	; 0x4e6 <voltage_update+0x44>
     4cc:	20 91 c4 01 	lds	r18, 0x01C4
     4d0:	30 91 c5 01 	lds	r19, 0x01C5
     4d4:	80 91 c8 01 	lds	r24, 0x01C8
     4d8:	90 91 c9 01 	lds	r25, 0x01C9
     4dc:	28 17       	cp	r18, r24
     4de:	39 07       	cpc	r19, r25
     4e0:	10 f0       	brcs	.+4      	; 0x4e6 <voltage_update+0x44>
			battery_low_warning = false;
     4e2:	10 92 d4 01 	sts	0x01D4, r1
     4e6:	08 95       	ret

000004e8 <led_update>:
}
/***************************************************************************/
void led_update(void)
{
	/* led_state = state; */
	switch (led_state) {
     4e8:	80 91 b2 01 	lds	r24, 0x01B2
     4ec:	88 23       	and	r24, r24
     4ee:	31 f0       	breq	.+12     	; 0x4fc <led_update+0x14>
     4f0:	81 30       	cpi	r24, 0x01	; 1
     4f2:	d1 f4       	brne	.+52     	; 0x528 <led_update+0x40>
		case LED_STATE_ON:
			led_state = LED_STATE_OFF;
     4f4:	10 92 b2 01 	sts	0x01B2, r1
			INT_LED_OFF;
     4f8:	76 9a       	sbi	0x0e, 6	; 14
     4fa:	08 95       	ret
			break;

		case LED_STATE_OFF:
			led_count++;
     4fc:	20 91 b9 01 	lds	r18, 0x01B9
     500:	2f 5f       	subi	r18, 0xFF	; 255
     502:	20 93 b9 01 	sts	0x01B9, r18
			if (led_count <= led_signal) {
     506:	80 91 b8 01 	lds	r24, 0x01B8
     50a:	82 17       	cp	r24, r18
     50c:	28 f0       	brcs	.+10     	; 0x518 <led_update+0x30>
				INT_LED_ON;
     50e:	76 98       	cbi	0x0e, 6	; 14
				led_state = LED_STATE_ON;
     510:	81 e0       	ldi	r24, 0x01	; 1
     512:	80 93 b2 01 	sts	0x01B2, r24
     516:	08 95       	ret
			}
			else if (led_count > led_signal + LED_DELAY) {
     518:	30 e0       	ldi	r19, 0x00	; 0
     51a:	90 e0       	ldi	r25, 0x00	; 0
     51c:	04 96       	adiw	r24, 0x04	; 4
     51e:	82 17       	cp	r24, r18
     520:	93 07       	cpc	r25, r19
     522:	14 f4       	brge	.+4      	; 0x528 <led_update+0x40>
				led_count = 0;
     524:	10 92 b9 01 	sts	0x01B9, r1
     528:	08 95       	ret

0000052a <led_init>:
}

/***************************************************************************/
void led_init(void)
{
	INT_LED_INIT;
     52a:	6e 9a       	sbi	0x0d, 6	; 13
	led_count = 0;
     52c:	10 92 b9 01 	sts	0x01B9, r1
	led_signal = 1;
     530:	81 e0       	ldi	r24, 0x01	; 1
     532:	80 93 b8 01 	sts	0x01B8, r24

	led_state = LED_STATE_OFF;
     536:	10 92 b2 01 	sts	0x01B2, r1
}
     53a:	08 95       	ret

0000053c <button_update>:
/***************************************************************************/
void button_update(void)
{
	but1 = PB_IS_HIGH (PINA, PINA6); /* button enabled if logic zero */
     53c:	80 b1       	in	r24, 0x00	; 0
	but1 = PB_IS_HIGH (PINA, PINA7); /* button enabled if logic zero */
     53e:	80 b1       	in	r24, 0x00	; 0
     540:	80 78       	andi	r24, 0x80	; 128
     542:	80 93 b0 01 	sts	0x01B0, r24
}
     546:	08 95       	ret

00000548 <button_init>:
/***************************************************************************/
void button_init(void)
{
	PB_PULL_UP (PORTA, PA6); /* enable pull-up resistor */
     548:	16 9a       	sbi	0x02, 6	; 2
	PB_PULL_UP (PORTA, PA7); /* enable pull-up resistor */
     54a:	17 9a       	sbi	0x02, 7	; 2
	led_state = LED_STATE_OFF;
}
/***************************************************************************/
void button_update(void)
{
	but1 = PB_IS_HIGH (PINA, PINA6); /* button enabled if logic zero */
     54c:	80 b1       	in	r24, 0x00	; 0
	but1 = PB_IS_HIGH (PINA, PINA7); /* button enabled if logic zero */
     54e:	80 b1       	in	r24, 0x00	; 0
     550:	80 78       	andi	r24, 0x80	; 128
     552:	80 93 b0 01 	sts	0x01B0, r24
void button_init(void)
{
	PB_PULL_UP (PORTA, PA6); /* enable pull-up resistor */
	PB_PULL_UP (PORTA, PA7); /* enable pull-up resistor */
	button_update();
}
     556:	08 95       	ret

00000558 <state_update>:
	nmea_tx();
}
/***************************************************************************/
void state_update(void)
{
	if (battery_low_warning == true)
     558:	80 91 d4 01 	lds	r24, 0x01D4
     55c:	81 30       	cpi	r24, 0x01	; 1
     55e:	21 f4       	brne	.+8      	; 0x568 <state_update+0x10>
	{
		state = STATE_ERR_LOWBAT;
     560:	85 e0       	ldi	r24, 0x05	; 5
     562:	80 93 bf 01 	sts	0x01BF, r24
     566:	3a c0       	rjmp	.+116    	; 0x5dc <state_update+0x84>
	}
	else if (nmea_wd > NMEA_WD_TOUT)
     568:	80 91 db 01 	lds	r24, 0x01DB
     56c:	90 91 dc 01 	lds	r25, 0x01DC
     570:	03 97       	sbiw	r24, 0x03	; 3
     572:	40 f0       	brcs	.+16     	; 0x584 <state_update+0x2c>
	{
		// Blokker, gemt til vedligehold, sættes foran "state = STATE_ERR_WATCHDOG;" : //test-melder ikke fejl på wathdog -
		
		if (SWITCH_1_IS_ON) {
     574:	06 99       	sbic	0x00, 6	; 0
     576:	03 c0       	rjmp	.+6      	; 0x57e <state_update+0x26>
		state = STATE_ERR_WATCHDOG;
     578:	84 e0       	ldi	r24, 0x04	; 4
     57a:	80 93 bf 01 	sts	0x01BF, r24
		} 
		FroboLightHouse_param_received = false;
     57e:	10 92 e4 01 	sts	0x01E4, r1
     582:	07 c0       	rjmp	.+14     	; 0x592 <state_update+0x3a>
		red_command = 10;
		yellow_command = 0;
		green_command = 0;
	}
	else if (FroboLightHouse_param_received == false)
     584:	80 91 e4 01 	lds	r24, 0x01E4
     588:	88 23       	and	r24, r24
     58a:	59 f4       	brne	.+22     	; 0x5a2 <state_update+0x4a>
	{
		state = STATE_ERR_NO_CONFIG; 
     58c:	83 e0       	ldi	r24, 0x03	; 3
     58e:	80 93 bf 01 	sts	0x01BF, r24
		red_command = 10;
     592:	8a e0       	ldi	r24, 0x0A	; 10
     594:	80 93 e5 01 	sts	0x01E5, r24
		yellow_command = 0;
     598:	10 92 aa 01 	sts	0x01AA, r1
		green_command = 0;
     59c:	10 92 d3 01 	sts	0x01D3, r1
     5a0:	1d c0       	rjmp	.+58     	; 0x5dc <state_update+0x84>
	}
	else if (nmea_err != 0)
     5a2:	80 91 88 02 	lds	r24, 0x0288
     5a6:	90 91 89 02 	lds	r25, 0x0289
     5aa:	89 2b       	or	r24, r25
     5ac:	41 f0       	breq	.+16     	; 0x5be <state_update+0x66>
	{
		state = STATE_WARN_NMEA_CS;
     5ae:	82 e0       	ldi	r24, 0x02	; 2
     5b0:	80 93 bf 01 	sts	0x01BF, r24
		nmea_err = 0;
     5b4:	10 92 89 02 	sts	0x0289, r1
     5b8:	10 92 88 02 	sts	0x0288, r1
     5bc:	0f c0       	rjmp	.+30     	; 0x5dc <state_update+0x84>
	}		
	else
	{
		state = STATE_OK;
     5be:	81 e0       	ldi	r24, 0x01	; 1
     5c0:	80 93 bf 01 	sts	0x01BF, r24
		red_command = red;
     5c4:	80 91 c6 01 	lds	r24, 0x01C6
     5c8:	80 93 e5 01 	sts	0x01E5, r24
		yellow_command = yellow;
     5cc:	80 91 c0 01 	lds	r24, 0x01C0
     5d0:	80 93 aa 01 	sts	0x01AA, r24
		green_command = green;
     5d4:	80 91 c2 01 	lds	r24, 0x01C2
     5d8:	80 93 d3 01 	sts	0x01D3, r24
	}

	led_signal = state; /* Frobomind Controller LED flashes state number */
     5dc:	80 91 bf 01 	lds	r24, 0x01BF
     5e0:	80 93 b8 01 	sts	0x01B8, r24
}
     5e4:	08 95       	ret

000005e6 <save_reset_source>:
}

/***************************************************************************/
void save_reset_source(void)
{
	char reset_reg = MCUSR; /* save the source of the latest reset */
     5e6:	84 b7       	in	r24, 0x34	; 52
	MCUSR = 0;
     5e8:	14 be       	out	0x34, r1	; 52
	switch (reset_reg) 
     5ea:	84 30       	cpi	r24, 0x04	; 4
     5ec:	89 f0       	breq	.+34     	; 0x610 <save_reset_source+0x2a>
     5ee:	85 30       	cpi	r24, 0x05	; 5
     5f0:	28 f4       	brcc	.+10     	; 0x5fc <save_reset_source+0x16>
     5f2:	81 30       	cpi	r24, 0x01	; 1
     5f4:	41 f0       	breq	.+16     	; 0x606 <save_reset_source+0x20>
     5f6:	82 30       	cpi	r24, 0x02	; 2
     5f8:	a1 f4       	brne	.+40     	; 0x622 <save_reset_source+0x3c>
     5fa:	08 c0       	rjmp	.+16     	; 0x60c <save_reset_source+0x26>
     5fc:	88 30       	cpi	r24, 0x08	; 8
     5fe:	51 f0       	breq	.+20     	; 0x614 <save_reset_source+0x2e>
     600:	80 31       	cpi	r24, 0x10	; 16
     602:	79 f4       	brne	.+30     	; 0x622 <save_reset_source+0x3c>
     604:	0b c0       	rjmp	.+22     	; 0x61c <save_reset_source+0x36>
	{
		case 1: /* power on */
			reset_source = 0; break;
     606:	10 92 00 01 	sts	0x0100, r1
     60a:	08 95       	ret
		case 2: /* reset activated */
			reset_source = 1; break;
     60c:	81 e0       	ldi	r24, 0x01	; 1
     60e:	03 c0       	rjmp	.+6      	; 0x616 <save_reset_source+0x30>
		case 4: /* brown out */
			reset_source = 2; break;
     610:	82 e0       	ldi	r24, 0x02	; 2
     612:	01 c0       	rjmp	.+2      	; 0x616 <save_reset_source+0x30>
		case 8: /* watchdog */
			reset_source = 3; break;
     614:	83 e0       	ldi	r24, 0x03	; 3
     616:	80 93 00 01 	sts	0x0100, r24
     61a:	08 95       	ret
		case 16: /* jtag */
			reset_source = 4; break;
     61c:	84 e0       	ldi	r24, 0x04	; 4
     61e:	80 93 00 01 	sts	0x0100, r24
     622:	08 95       	ret

00000624 <nmea_tx_status>:
}
/***************************************************************************/
void nmea_tx_status(void)
{
//	long tl, tr;
	tx_len = 7; /* keep the NMEA message prefix */
     624:	87 e0       	ldi	r24, 0x07	; 7
     626:	90 e0       	ldi	r25, 0x00	; 0
     628:	90 93 2b 03 	sts	0x032B, r25
     62c:	80 93 2a 03 	sts	0x032A, r24

	nmea_tx_append_ushort (state);
     630:	80 91 bf 01 	lds	r24, 0x01BF
     634:	90 e0       	ldi	r25, 0x00	; 0
     636:	0e 94 11 05 	call	0xa22	; 0xa22 <nmea_tx_append_ushort>

	nmea_tx_append_ushort (voltage); /* battery voltage [0;1023] */
     63a:	80 91 c4 01 	lds	r24, 0x01C4
     63e:	90 91 c5 01 	lds	r25, 0x01C5
     642:	0e 94 11 05 	call	0xa22	; 0xa22 <nmea_tx_append_ushort>

	nmea_tx_append_ushort (red_signal); /*  [0;1023] */
     646:	80 91 e3 01 	lds	r24, 0x01E3
     64a:	90 e0       	ldi	r25, 0x00	; 0
     64c:	0e 94 11 05 	call	0xa22	; 0xa22 <nmea_tx_append_ushort>

	nmea_tx_append_ushort (yellow_signal); /*  [0;1023] */
     650:	80 91 e2 01 	lds	r24, 0x01E2
     654:	90 e0       	ldi	r25, 0x00	; 0
     656:	0e 94 11 05 	call	0xa22	; 0xa22 <nmea_tx_append_ushort>

	nmea_tx_append_ushort (green_signal); /*  [0;1023] */
     65a:	80 91 af 01 	lds	r24, 0x01AF
     65e:	90 e0       	ldi	r25, 0x00	; 0
     660:	0e 94 11 05 	call	0xa22	; 0xa22 <nmea_tx_append_ushort>

	tx_len--; /* delete the last comma */
     664:	80 91 2a 03 	lds	r24, 0x032A
     668:	90 91 2b 03 	lds	r25, 0x032B
     66c:	01 97       	sbiw	r24, 0x01	; 1
     66e:	90 93 2b 03 	sts	0x032B, r25
     672:	80 93 2a 03 	sts	0x032A, r24
	nmea_tx();
     676:	0e 94 b6 04 	call	0x96c	; 0x96c <nmea_tx>
}
     67a:	08 95       	ret

0000067c <sched_update>:
	led_signal = state; /* Frobomind Controller LED flashes state number */
}
/***************************************************************************/
void sched_update (void)
{
	t1ms_cnt++;
     67c:	80 91 ab 01 	lds	r24, 0x01AB
     680:	90 91 ac 01 	lds	r25, 0x01AC
     684:	01 96       	adiw	r24, 0x01	; 1
     686:	90 93 ac 01 	sts	0x01AC, r25
     68a:	80 93 ab 01 	sts	0x01AB, r24
	if (t1ms_cnt == 10000)
     68e:	80 51       	subi	r24, 0x10	; 16
     690:	97 42       	sbci	r25, 0x27	; 39
     692:	21 f4       	brne	.+8      	; 0x69c <sched_update+0x20>
		t1ms_cnt = 0;
     694:	10 92 ac 01 	sts	0x01AC, r1
     698:	10 92 ab 01 	sts	0x01AB, r1
	

	/* each 10 ms */
	if (t1ms_cnt % 10 == 0) /* each 10 ms */
     69c:	20 91 ab 01 	lds	r18, 0x01AB
     6a0:	30 91 ac 01 	lds	r19, 0x01AC
     6a4:	c9 01       	movw	r24, r18
     6a6:	6a e0       	ldi	r22, 0x0A	; 10
     6a8:	70 e0       	ldi	r23, 0x00	; 0
     6aa:	0e 94 b8 07 	call	0xf70	; 0xf70 <__udivmodhi4>
     6ae:	89 2b       	or	r24, r25
     6b0:	09 f0       	breq	.+2      	; 0x6b4 <sched_update+0x38>
     6b2:	46 c0       	rjmp	.+140    	; 0x740 <sched_update+0xc4>
	{
		wdt_reset(); /* reset watchdog */
     6b4:	a8 95       	wdr

		if (t1ms_cnt % 50 == 0) /* each 50 ms */
		{
		}

		if (t1ms_cnt % 100 == 0) /* each 100 ms */
     6b6:	c9 01       	movw	r24, r18
     6b8:	64 e6       	ldi	r22, 0x64	; 100
     6ba:	70 e0       	ldi	r23, 0x00	; 0
     6bc:	0e 94 b8 07 	call	0xf70	; 0xf70 <__udivmodhi4>
     6c0:	89 2b       	or	r24, r25
     6c2:	f1 f4       	brne	.+60     	; 0x700 <sched_update+0x84>
		{
			if (nmea_wd_timeout)
     6c4:	80 91 ba 01 	lds	r24, 0x01BA
     6c8:	90 91 bb 01 	lds	r25, 0x01BB
     6cc:	89 2b       	or	r24, r25
     6ce:	51 f0       	breq	.+20     	; 0x6e4 <sched_update+0x68>
				nmea_wd++; /* increase nmea watchdog timeout */
     6d0:	80 91 db 01 	lds	r24, 0x01DB
     6d4:	90 91 dc 01 	lds	r25, 0x01DC
     6d8:	01 96       	adiw	r24, 0x01	; 1
     6da:	90 93 dc 01 	sts	0x01DC, r25
     6de:	80 93 db 01 	sts	0x01DB, r24
     6e2:	04 c0       	rjmp	.+8      	; 0x6ec <sched_update+0x70>
			else
				nmea_wd = 0;
     6e4:	10 92 dc 01 	sts	0x01DC, r1
     6e8:	10 92 db 01 	sts	0x01DB, r1
			voltage = adc_data[0]; /* read voltage measurement */
     6ec:	80 91 d5 01 	lds	r24, 0x01D5
     6f0:	90 91 d6 01 	lds	r25, 0x01D6
     6f4:	90 93 c5 01 	sts	0x01C5, r25
     6f8:	80 93 c4 01 	sts	0x01C4, r24
			state_update();
     6fc:	0e 94 ac 02 	call	0x558	; 0x558 <state_update>
		}
		if (t1ms_cnt % 200 == 0) /* each 200 ms */
     700:	80 91 ab 01 	lds	r24, 0x01AB
     704:	90 91 ac 01 	lds	r25, 0x01AC
     708:	68 ec       	ldi	r22, 0xC8	; 200
     70a:	70 e0       	ldi	r23, 0x00	; 0
     70c:	0e 94 b8 07 	call	0xf70	; 0xf70 <__udivmodhi4>
     710:	89 2b       	or	r24, r25
     712:	b1 f4       	brne	.+44     	; 0x740 <sched_update+0xc4>
	led_state = LED_STATE_OFF;
}
/***************************************************************************/
void button_update(void)
{
	but1 = PB_IS_HIGH (PINA, PINA6); /* button enabled if logic zero */
     714:	80 b1       	in	r24, 0x00	; 0
	but1 = PB_IS_HIGH (PINA, PINA7); /* button enabled if logic zero */
     716:	80 b1       	in	r24, 0x00	; 0
     718:	80 78       	andi	r24, 0x80	; 128
     71a:	80 93 b0 01 	sts	0x01B0, r24
			state_update();
		}
		if (t1ms_cnt % 200 == 0) /* each 200 ms */
		{
			button_update();		
			led_update();
     71e:	0e 94 74 02 	call	0x4e8	; 0x4e8 <led_update>
			LightHouse_Update(red_command, yellow_command, green_command);
     722:	60 91 aa 01 	lds	r22, 0x01AA
     726:	40 91 d3 01 	lds	r20, 0x01D3
     72a:	80 91 e5 01 	lds	r24, 0x01E5
     72e:	90 e0       	ldi	r25, 0x00	; 0
     730:	70 e0       	ldi	r23, 0x00	; 0
     732:	50 e0       	ldi	r21, 0x00	; 0
     734:	0e 94 91 06 	call	0xd22	; 0xd22 <LightHouse_Update>
			voltage_update();
     738:	0e 94 51 02 	call	0x4a2	; 0x4a2 <voltage_update>
			nmea_tx_status();
     73c:	0e 94 12 03 	call	0x624	; 0x624 <nmea_tx_status>
     740:	08 95       	ret

00000742 <nmea_rx_parse>:
	nmea_ticks_r = 0;
}
/***************************************************************************/
void nmea_rx_parse(void)
{		/* Commonication for Frobo_Row_Cleaner*/
	if (rx[0] == 'P' && rx[1] == 'F' && rx[2] == 'L') 		
     742:	80 91 e6 01 	lds	r24, 0x01E6
     746:	80 35       	cpi	r24, 0x50	; 80
     748:	09 f0       	breq	.+2      	; 0x74c <nmea_rx_parse+0xa>
     74a:	61 c0       	rjmp	.+194    	; 0x80e <nmea_rx_parse+0xcc>
     74c:	80 91 e7 01 	lds	r24, 0x01E7
     750:	86 34       	cpi	r24, 0x46	; 70
     752:	09 f0       	breq	.+2      	; 0x756 <nmea_rx_parse+0x14>
     754:	5c c0       	rjmp	.+184    	; 0x80e <nmea_rx_parse+0xcc>
     756:	80 91 e8 01 	lds	r24, 0x01E8
     75a:	8c 34       	cpi	r24, 0x4C	; 76
     75c:	09 f0       	breq	.+2      	; 0x760 <nmea_rx_parse+0x1e>
     75e:	57 c0       	rjmp	.+174    	; 0x80e <nmea_rx_parse+0xcc>
	{
		if (rx[3] == 'S' && rx[4] == 'P') /* System Parameters */
     760:	80 91 e9 01 	lds	r24, 0x01E9
     764:	83 35       	cpi	r24, 0x53	; 83
     766:	89 f4       	brne	.+34     	; 0x78a <nmea_rx_parse+0x48>
     768:	80 91 ea 01 	lds	r24, 0x01EA
     76c:	80 35       	cpi	r24, 0x50	; 80
     76e:	71 f5       	brne	.+92     	; 0x7cc <nmea_rx_parse+0x8a>
		{
			rx_ite = 5; /* jump to first value */
     770:	85 e0       	ldi	r24, 0x05	; 5
     772:	90 e0       	ldi	r25, 0x00	; 0
     774:	90 93 87 02 	sts	0x0287, r25
     778:	80 93 86 02 	sts	0x0286, r24
			voltage_min = nmea_rx_next_val();
     77c:	0e 94 45 06 	call	0xc8a	; 0xc8a <nmea_rx_next_val>
     780:	90 93 c9 01 	sts	0x01C9, r25
     784:	80 93 c8 01 	sts	0x01C8, r24
     788:	08 95       	ret
		}
		else if (rx[3] == 'C' && rx[4] == 'P') /* Communication Parameters */
     78a:	83 34       	cpi	r24, 0x43	; 67
     78c:	09 f0       	breq	.+2      	; 0x790 <nmea_rx_parse+0x4e>
     78e:	3f c0       	rjmp	.+126    	; 0x80e <nmea_rx_parse+0xcc>
     790:	80 91 ea 01 	lds	r24, 0x01EA
     794:	80 35       	cpi	r24, 0x50	; 80
     796:	d9 f5       	brne	.+118    	; 0x80e <nmea_rx_parse+0xcc>
		{
			rx_ite = 5; /* jump to first value */
     798:	85 e0       	ldi	r24, 0x05	; 5
     79a:	90 e0       	ldi	r25, 0x00	; 0
     79c:	90 93 87 02 	sts	0x0287, r25
     7a0:	80 93 86 02 	sts	0x0286, r24
			pfbst_interval = nmea_rx_next_val();
     7a4:	0e 94 45 06 	call	0xc8a	; 0xc8a <nmea_rx_next_val>
     7a8:	90 93 ae 01 	sts	0x01AE, r25
     7ac:	80 93 ad 01 	sts	0x01AD, r24
			if (rx_ite != -1)
     7b0:	80 91 86 02 	lds	r24, 0x0286
     7b4:	90 91 87 02 	lds	r25, 0x0287
     7b8:	8f 5f       	subi	r24, 0xFF	; 255
     7ba:	9f 4f       	sbci	r25, 0xFF	; 255
     7bc:	41 f1       	breq	.+80     	; 0x80e <nmea_rx_parse+0xcc>
				nmea_wd_timeout = nmea_rx_next_val();
     7be:	0e 94 45 06 	call	0xc8a	; 0xc8a <nmea_rx_next_val>
     7c2:	90 93 bb 01 	sts	0x01BB, r25
     7c6:	80 93 ba 01 	sts	0x01BA, r24
     7ca:	08 95       	ret
		}
		else if (rx[3] == 'S' && rx[4] == 'L') /* Actuator Control */
     7cc:	8c 34       	cpi	r24, 0x4C	; 76
     7ce:	f9 f4       	brne	.+62     	; 0x80e <nmea_rx_parse+0xcc>
		{
			rx_ite = 5; /* jump to first value */
     7d0:	85 e0       	ldi	r24, 0x05	; 5
     7d2:	90 e0       	ldi	r25, 0x00	; 0
     7d4:	90 93 87 02 	sts	0x0287, r25
     7d8:	80 93 86 02 	sts	0x0286, r24
			nmea_wd = 0; /* reset watchdog timeout */
     7dc:	10 92 dc 01 	sts	0x01DC, r1
     7e0:	10 92 db 01 	sts	0x01DB, r1
			red = ((nmea_rx_next_val()));		//Set whanted distance for yelow [0-10]
     7e4:	0e 94 45 06 	call	0xc8a	; 0xc8a <nmea_rx_next_val>
     7e8:	90 93 c7 01 	sts	0x01C7, r25
     7ec:	80 93 c6 01 	sts	0x01C6, r24
			yellow = ((nmea_rx_next_val()));		//Set whanted distance for yellow [0-10]
     7f0:	0e 94 45 06 	call	0xc8a	; 0xc8a <nmea_rx_next_val>
     7f4:	90 93 c1 01 	sts	0x01C1, r25
     7f8:	80 93 c0 01 	sts	0x01C0, r24
			green = ((nmea_rx_next_val()));		//Set whanted distance for green [0-10]
     7fc:	0e 94 45 06 	call	0xc8a	; 0xc8a <nmea_rx_next_val>
     800:	90 93 c3 01 	sts	0x01C3, r25
     804:	80 93 c2 01 	sts	0x01C2, r24
			FroboLightHouse_param_received = true;
     808:	81 e0       	ldi	r24, 0x01	; 1
     80a:	80 93 e4 01 	sts	0x01E4, r24
     80e:	08 95       	ret

00000810 <nmea_init>:
	PB_PULL_UP (PORTA, PA7); /* enable pull-up resistor */
	button_update();
}
/***************************************************************************/
void nmea_init(void)
{
     810:	1f 93       	push	r17
	nmea_reset();
     812:	0e 94 34 06 	call	0xc68	; 0xc68 <nmea_reset>
	nmea_wd = 0xffff; /* set watchdog timeout at init */
     816:	8f ef       	ldi	r24, 0xFF	; 255
     818:	9f ef       	ldi	r25, 0xFF	; 255
     81a:	90 93 dc 01 	sts	0x01DC, r25
     81e:	80 93 db 01 	sts	0x01DB, r24

	tx[0] = '$'; /* send first boot message */
     822:	84 e2       	ldi	r24, 0x24	; 36
     824:	80 93 8a 02 	sts	0x028A, r24
	tx[1] = 'P';
     828:	80 e5       	ldi	r24, 0x50	; 80
     82a:	80 93 8b 02 	sts	0x028B, r24
	tx[2] = 'F';
     82e:	86 e4       	ldi	r24, 0x46	; 70
     830:	80 93 8c 02 	sts	0x028C, r24
	tx[3] = 'L';
     834:	8c e4       	ldi	r24, 0x4C	; 76
     836:	80 93 8d 02 	sts	0x028D, r24
	tx[4] = 'S';
     83a:	13 e5       	ldi	r17, 0x53	; 83
     83c:	10 93 8e 02 	sts	0x028E, r17
	tx[5] = 'L';
     840:	80 93 8f 02 	sts	0x028F, r24
	tx[6] = ',';
     844:	9c e2       	ldi	r25, 0x2C	; 44
     846:	90 93 90 02 	sts	0x0290, r25
	tx[7] = '2'; /* hw version */		
     84a:	22 e3       	ldi	r18, 0x32	; 50
     84c:	20 93 91 02 	sts	0x0291, r18
	tx[8] = ',';
     850:	90 93 92 02 	sts	0x0292, r25
	tx[9] = '1'; /* sw major version */	
     854:	81 e3       	ldi	r24, 0x31	; 49
     856:	80 93 93 02 	sts	0x0293, r24
	tx[10] = ',';
     85a:	90 93 94 02 	sts	0x0294, r25
	tx[11] = '2'; /* sw minor version */
     85e:	20 93 95 02 	sts	0x0295, r18
	tx[12] = ',';
     862:	90 93 96 02 	sts	0x0296, r25
	tx[13] = '0' + reset_source; /* latest reset type */
     866:	80 91 00 01 	lds	r24, 0x0100
     86a:	80 5d       	subi	r24, 0xD0	; 208
     86c:	80 93 97 02 	sts	0x0297, r24
	tx_len = 14;
     870:	8e e0       	ldi	r24, 0x0E	; 14
     872:	90 e0       	ldi	r25, 0x00	; 0
     874:	90 93 2b 03 	sts	0x032B, r25
     878:	80 93 2a 03 	sts	0x032A, r24
	nmea_tx();
     87c:	0e 94 b6 04 	call	0x96c	; 0x96c <nmea_tx>

	tx[4] = 'S'; /* prepare for status messages */
     880:	10 93 8e 02 	sts	0x028E, r17
	tx[5] = 'T';
     884:	84 e5       	ldi	r24, 0x54	; 84
     886:	80 93 8f 02 	sts	0x028F, r24
	tx_len = 7;
     88a:	87 e0       	ldi	r24, 0x07	; 7
     88c:	90 e0       	ldi	r25, 0x00	; 0
     88e:	90 93 2b 03 	sts	0x032B, r25
     892:	80 93 2a 03 	sts	0x032A, r24

	nmea_ticks_l = 0;
     896:	10 92 b4 01 	sts	0x01B4, r1
     89a:	10 92 b5 01 	sts	0x01B5, r1
     89e:	10 92 b6 01 	sts	0x01B6, r1
     8a2:	10 92 b7 01 	sts	0x01B7, r1
	nmea_ticks_r = 0;
     8a6:	10 92 cf 01 	sts	0x01CF, r1
     8aa:	10 92 d0 01 	sts	0x01D0, r1
     8ae:	10 92 d1 01 	sts	0x01D1, r1
     8b2:	10 92 d2 01 	sts	0x01D2, r1
}
     8b6:	1f 91       	pop	r17
     8b8:	08 95       	ret

000008ba <main>:
	}
}
/***************************************************************************/
int main(void)
{
	save_reset_source(); /* determine the cause of the startup */
     8ba:	0e 94 f3 02 	call	0x5e6	; 0x5e6 <save_reset_source>

/***************************************************************************/
void sched_init(void)
{
	/* timer 0 interrupt init (each 1ms) */
	t1ms = 0;
     8be:	10 92 bc 01 	sts	0x01BC, r1
	t1ms_cnt = 0;
     8c2:	10 92 ac 01 	sts	0x01AC, r1
     8c6:	10 92 ab 01 	sts	0x01AB, r1
    TIMSK0 = BV(OCIE0A); 
     8ca:	82 e0       	ldi	r24, 0x02	; 2
     8cc:	80 93 6e 00 	sts	0x006E, r24
    TCCR0A = BV(CS00) | BV(CS01) | BV(WGM01); /* clk/64, TOS is defined as OCR0A */  
     8d0:	8b e0       	ldi	r24, 0x0B	; 11
     8d2:	84 bd       	out	0x24, r24	; 36
    OCR0A = INT0_CNT_TOP;
     8d4:	89 ef       	ldi	r24, 0xF9	; 249
     8d6:	87 bd       	out	0x27, r24	; 39
}

/***************************************************************************/
void led_init(void)
{
	INT_LED_INIT;
     8d8:	6e 9a       	sbi	0x0d, 6	; 13
	led_count = 0;
     8da:	10 92 b9 01 	sts	0x01B9, r1
	led_signal = 1;
     8de:	81 e0       	ldi	r24, 0x01	; 1
     8e0:	80 93 b8 01 	sts	0x01B8, r24

	led_state = LED_STATE_OFF;
     8e4:	10 92 b2 01 	sts	0x01B2, r1
int main(void)
{
	save_reset_source(); /* determine the cause of the startup */
	sched_init(); /* initialize the scheduler */
	led_init(); /* initialize led */
	button_init(); /* initialize button */
     8e8:	0e 94 a4 02 	call	0x548	; 0x548 <button_init>
}
/***************************************************************************/
/* Setup of port used for the Actuator */
void FroboLightHouse_Init (void)
{
	DDRA = 	0b00001111;  //Pin 0, 1, 2 and 3 of PORTA declared as input
     8ec:	8f e0       	ldi	r24, 0x0F	; 15
     8ee:	81 b9       	out	0x01, r24	; 1
	PORTA= 	0x00;			//No pullup
     8f0:	12 b8       	out	0x02, r1	; 2
	save_reset_source(); /* determine the cause of the startup */
	sched_init(); /* initialize the scheduler */
	led_init(); /* initialize led */
	button_init(); /* initialize button */
	FroboLightHouse_Init();/* initialize FroboLightHouse (FroboLightHouse port declaration) */
	adc_init(); /* initialize ADC (battery voltage measurement) */
     8f2:	0e 94 30 02 	call	0x460	; 0x460 <adc_init>
	serial_init(); /* initialize serial communication */
     8f6:	0e 94 6b 00 	call	0xd6	; 0xd6 <serial_init>
	pfbst_interval = 20; /* send $PFBST at 20 ms interval */
     8fa:	84 e1       	ldi	r24, 0x14	; 20
     8fc:	90 e0       	ldi	r25, 0x00	; 0
     8fe:	90 93 ae 01 	sts	0x01AE, r25
     902:	80 93 ad 01 	sts	0x01AD, r24
	nmea_wd_timeout = 1; /* set PFBCT watchdog timeout to 100ms */
     906:	81 e0       	ldi	r24, 0x01	; 1
     908:	90 e0       	ldi	r25, 0x00	; 0
     90a:	90 93 bb 01 	sts	0x01BB, r25
     90e:	80 93 ba 01 	sts	0x01BA, r24
	nmea_wd = NMEA_WD_TOUT+1; /* make sure we begin in watchdog timeout state */
     912:	83 e0       	ldi	r24, 0x03	; 3
     914:	90 e0       	ldi	r25, 0x00	; 0
     916:	90 93 dc 01 	sts	0x01DC, r25
     91a:	80 93 db 01 	sts	0x01DB, r24
	voltage_min = VOLTAGE_MIN_DEFAULT;
     91e:	84 e6       	ldi	r24, 0x64	; 100
     920:	90 e0       	ldi	r25, 0x00	; 0
     922:	90 93 c9 01 	sts	0x01C9, r25
     926:	80 93 c8 01 	sts	0x01C8, r24
	battery_low_warning = false;
     92a:	10 92 d4 01 	sts	0x01D4, r1
	state_update();
     92e:	0e 94 ac 02 	call	0x558	; 0x558 <state_update>
	sei(); /* enable interrupts */
     932:	78 94       	sei
	wdt_enable (WDTO_15MS); /* enable watchdog reset at approx 15 ms (ref. p.58) */
     934:	28 e0       	ldi	r18, 0x08	; 8
     936:	88 e1       	ldi	r24, 0x18	; 24
     938:	90 e0       	ldi	r25, 0x00	; 0
     93a:	0f b6       	in	r0, 0x3f	; 63
     93c:	f8 94       	cli
     93e:	a8 95       	wdr
     940:	80 93 60 00 	sts	0x0060, r24
     944:	0f be       	out	0x3f, r0	; 63
     946:	20 93 60 00 	sts	0x0060, r18
	nmea_init(); /* initialize nmea protocol handler */
     94a:	0e 94 08 04 	call	0x810	; 0x810 <nmea_init>

	for (;;) /* go into an endless loop */
	{
		/* motor_update(); */

		if (t1ms != 0) /* if the interrupt has timed out after 10ms */
     94e:	80 91 bc 01 	lds	r24, 0x01BC
     952:	88 23       	and	r24, r24
     954:	41 f0       	breq	.+16     	; 0x966 <main+0xac>
		{
			t1ms --;
     956:	80 91 bc 01 	lds	r24, 0x01BC
     95a:	81 50       	subi	r24, 0x01	; 1
     95c:	80 93 bc 01 	sts	0x01BC, r24
			sched_update(); /* run the scheduler */
     960:	0e 94 3e 03 	call	0x67c	; 0x67c <sched_update>
     964:	f4 cf       	rjmp	.-24     	; 0x94e <main+0x94>
		}
		else
		{
			nmea_rx_update();
     966:	0e 94 53 05 	call	0xaa6	; 0xaa6 <nmea_rx_update>
     96a:	f1 cf       	rjmp	.-30     	; 0x94e <main+0x94>

0000096c <nmea_tx>:
{
	short i;
	unsigned char cs = 0;

	/* calculate checksum */
	tx[tx_len++] = '*';
     96c:	80 91 2a 03 	lds	r24, 0x032A
     970:	90 91 2b 03 	lds	r25, 0x032B
     974:	fc 01       	movw	r30, r24
     976:	e6 57       	subi	r30, 0x76	; 118
     978:	fd 4f       	sbci	r31, 0xFD	; 253
     97a:	2a e2       	ldi	r18, 0x2A	; 42
     97c:	20 83       	st	Z, r18
     97e:	bc 01       	movw	r22, r24
     980:	6f 5f       	subi	r22, 0xFF	; 255
     982:	7f 4f       	sbci	r23, 0xFF	; 255
     984:	70 93 2b 03 	sts	0x032B, r23
     988:	60 93 2a 03 	sts	0x032A, r22
     98c:	21 e0       	ldi	r18, 0x01	; 1
     98e:	30 e0       	ldi	r19, 0x00	; 0
     990:	40 e0       	ldi	r20, 0x00	; 0
	for (i=1; i<tx_len-1; i++)
     992:	dc 01       	movw	r26, r24
     994:	07 c0       	rjmp	.+14     	; 0x9a4 <nmea_tx+0x38>
		cs ^= tx[i];
     996:	f9 01       	movw	r30, r18
     998:	e6 57       	subi	r30, 0x76	; 118
     99a:	fd 4f       	sbci	r31, 0xFD	; 253
     99c:	80 81       	ld	r24, Z
     99e:	48 27       	eor	r20, r24
	short i;
	unsigned char cs = 0;

	/* calculate checksum */
	tx[tx_len++] = '*';
	for (i=1; i<tx_len-1; i++)
     9a0:	2f 5f       	subi	r18, 0xFF	; 255
     9a2:	3f 4f       	sbci	r19, 0xFF	; 255
     9a4:	2a 17       	cp	r18, r26
     9a6:	3b 07       	cpc	r19, r27
     9a8:	b4 f3       	brlt	.-20     	; 0x996 <nmea_tx+0x2a>
		cs ^= tx[i];
	utoa(cs,tx+tx_len,16);
     9aa:	66 57       	subi	r22, 0x76	; 118
     9ac:	7d 4f       	sbci	r23, 0xFD	; 253
     9ae:	84 2f       	mov	r24, r20
     9b0:	90 e0       	ldi	r25, 0x00	; 0
     9b2:	40 e1       	ldi	r20, 0x10	; 16
     9b4:	50 e0       	ldi	r21, 0x00	; 0
     9b6:	0e 94 13 08 	call	0x1026	; 0x1026 <utoa>

	/* force capital letters */
	i = tx_len+2;
     9ba:	80 91 2a 03 	lds	r24, 0x032A
     9be:	90 91 2b 03 	lds	r25, 0x032B
     9c2:	9c 01       	movw	r18, r24
     9c4:	2e 5f       	subi	r18, 0xFE	; 254
     9c6:	3f 4f       	sbci	r19, 0xFF	; 255
     9c8:	fc 01       	movw	r30, r24
     9ca:	e6 57       	subi	r30, 0x76	; 118
     9cc:	fd 4f       	sbci	r31, 0xFD	; 253
	for (; tx_len!=i; tx_len++) {
     9ce:	a9 01       	movw	r20, r18
     9d0:	46 57       	subi	r20, 0x76	; 118
     9d2:	5d 4f       	sbci	r21, 0xFD	; 253
     9d4:	08 c0       	rjmp	.+16     	; 0x9e6 <nmea_tx+0x7a>
		if(tx[tx_len] > 0x60 && tx[tx_len] < 0x67)
     9d6:	90 81       	ld	r25, Z
     9d8:	89 2f       	mov	r24, r25
     9da:	81 56       	subi	r24, 0x61	; 97
     9dc:	86 30       	cpi	r24, 0x06	; 6
     9de:	10 f4       	brcc	.+4      	; 0x9e4 <nmea_tx+0x78>
			tx[tx_len] -= 0x20;
     9e0:	90 52       	subi	r25, 0x20	; 32
     9e2:	90 83       	st	Z, r25
     9e4:	31 96       	adiw	r30, 0x01	; 1
		cs ^= tx[i];
	utoa(cs,tx+tx_len,16);

	/* force capital letters */
	i = tx_len+2;
	for (; tx_len!=i; tx_len++) {
     9e6:	e4 17       	cp	r30, r20
     9e8:	f5 07       	cpc	r31, r21
     9ea:	a9 f7       	brne	.-22     	; 0x9d6 <nmea_tx+0x6a>
		if(tx[tx_len] > 0x60 && tx[tx_len] < 0x67)
			tx[tx_len] -= 0x20;
	}

	/* add CR LF and send the message */
	tx[tx_len++] = 13;
     9ec:	f9 01       	movw	r30, r18
     9ee:	e6 57       	subi	r30, 0x76	; 118
     9f0:	fd 4f       	sbci	r31, 0xFD	; 253
     9f2:	8d e0       	ldi	r24, 0x0D	; 13
     9f4:	80 83       	st	Z, r24
     9f6:	c9 01       	movw	r24, r18
     9f8:	01 96       	adiw	r24, 0x01	; 1
	tx[tx_len++] = 10;
     9fa:	fc 01       	movw	r30, r24
     9fc:	e6 57       	subi	r30, 0x76	; 118
     9fe:	fd 4f       	sbci	r31, 0xFD	; 253
     a00:	2a e0       	ldi	r18, 0x0A	; 10
     a02:	20 83       	st	Z, r18
     a04:	01 96       	adiw	r24, 0x01	; 1
	tx[tx_len++] = 0;
     a06:	fc 01       	movw	r30, r24
     a08:	e6 57       	subi	r30, 0x76	; 118
     a0a:	fd 4f       	sbci	r31, 0xFD	; 253
     a0c:	10 82       	st	Z, r1
     a0e:	01 96       	adiw	r24, 0x01	; 1
     a10:	90 93 2b 03 	sts	0x032B, r25
     a14:	80 93 2a 03 	sts	0x032A, r24
	serial_tx_string(tx);
     a18:	8a e8       	ldi	r24, 0x8A	; 138
     a1a:	92 e0       	ldi	r25, 0x02	; 2
     a1c:	0e 94 5e 01 	call	0x2bc	; 0x2bc <serial_tx_string>
}
     a20:	08 95       	ret

00000a22 <nmea_tx_append_ushort>:
	tx[tx_len++] = ',';
}
/***************************************************************************/
void nmea_tx_append_ushort(unsigned short val)
{
	itoa (val, tx+tx_len, 10);
     a22:	60 91 2a 03 	lds	r22, 0x032A
     a26:	70 91 2b 03 	lds	r23, 0x032B
     a2a:	66 57       	subi	r22, 0x76	; 118
     a2c:	7d 4f       	sbci	r23, 0xFD	; 253
     a2e:	4a e0       	ldi	r20, 0x0A	; 10
     a30:	50 e0       	ldi	r21, 0x00	; 0
     a32:	0e 94 ea 07 	call	0xfd4	; 0xfd4 <itoa>
     a36:	20 91 2a 03 	lds	r18, 0x032A
     a3a:	30 91 2b 03 	lds	r19, 0x032B
     a3e:	f9 01       	movw	r30, r18
     a40:	e6 57       	subi	r30, 0x76	; 118
     a42:	fd 4f       	sbci	r31, 0xFD	; 253
     a44:	a9 01       	movw	r20, r18
	while (tx[tx_len] != 0)
     a46:	81 91       	ld	r24, Z+
     a48:	2f 5f       	subi	r18, 0xFF	; 255
     a4a:	3f 4f       	sbci	r19, 0xFF	; 255
     a4c:	88 23       	and	r24, r24
     a4e:	d1 f7       	brne	.-12     	; 0xa44 <nmea_tx_append_ushort+0x22>
		tx_len++;

	tx[tx_len++] = ',';
     a50:	fa 01       	movw	r30, r20
     a52:	e6 57       	subi	r30, 0x76	; 118
     a54:	fd 4f       	sbci	r31, 0xFD	; 253
     a56:	8c e2       	ldi	r24, 0x2C	; 44
     a58:	80 83       	st	Z, r24
     a5a:	30 93 2b 03 	sts	0x032B, r19
     a5e:	20 93 2a 03 	sts	0x032A, r18
}
     a62:	08 95       	ret

00000a64 <nmea_tx_append_short>:
	}
}
/***************************************************************************/
void nmea_tx_append_short(short val)
{
	itoa (val, tx+tx_len, 10);
     a64:	60 91 2a 03 	lds	r22, 0x032A
     a68:	70 91 2b 03 	lds	r23, 0x032B
     a6c:	66 57       	subi	r22, 0x76	; 118
     a6e:	7d 4f       	sbci	r23, 0xFD	; 253
     a70:	4a e0       	ldi	r20, 0x0A	; 10
     a72:	50 e0       	ldi	r21, 0x00	; 0
     a74:	0e 94 ea 07 	call	0xfd4	; 0xfd4 <itoa>
     a78:	20 91 2a 03 	lds	r18, 0x032A
     a7c:	30 91 2b 03 	lds	r19, 0x032B
     a80:	f9 01       	movw	r30, r18
     a82:	e6 57       	subi	r30, 0x76	; 118
     a84:	fd 4f       	sbci	r31, 0xFD	; 253
     a86:	a9 01       	movw	r20, r18
	while (tx[tx_len] != 0)
     a88:	81 91       	ld	r24, Z+
     a8a:	2f 5f       	subi	r18, 0xFF	; 255
     a8c:	3f 4f       	sbci	r19, 0xFF	; 255
     a8e:	88 23       	and	r24, r24
     a90:	d1 f7       	brne	.-12     	; 0xa86 <nmea_tx_append_short+0x22>
		tx_len++;

	tx[tx_len++] = ',';
     a92:	fa 01       	movw	r30, r20
     a94:	e6 57       	subi	r30, 0x76	; 118
     a96:	fd 4f       	sbci	r31, 0xFD	; 253
     a98:	8c e2       	ldi	r24, 0x2C	; 44
     a9a:	80 83       	st	Z, r24
     a9c:	30 93 2b 03 	sts	0x032B, r19
     aa0:	20 93 2a 03 	sts	0x032A, r18
}
     aa4:	08 95       	ret

00000aa6 <nmea_rx_update>:
		serial_tx (10);		
	} 
}

void nmea_rx_update(void)
{
     aa6:	cf 93       	push	r28
     aa8:	df 93       	push	r29
				{
					nmea_err++; 
/* tx_inbuf(); */
				}
			}
			rx_len = -1; /* waiting for next start of message */
     aaa:	cf ef       	ldi	r28, 0xFF	; 255
     aac:	df ef       	ldi	r29, 0xFF	; 255
     aae:	98 c0       	rjmp	.+304    	; 0xbe0 <nmea_rx_update+0x13a>
void nmea_rx_update(void)
{
	/* update nmea buffer */
	while (serial_rx_avail())
	{
		char c = serial_rx();
     ab0:	0e 94 a6 01 	call	0x34c	; 0x34c <serial_rx>
     ab4:	28 2f       	mov	r18, r24
		if (c=='$') { /* start of message */
     ab6:	84 32       	cpi	r24, 0x24	; 36
     ab8:	a9 f4       	brne	.+42     	; 0xae4 <nmea_rx_update+0x3e>
			if (rx_len != -1) {
     aba:	80 91 2c 03 	lds	r24, 0x032C
     abe:	90 91 2d 03 	lds	r25, 0x032D
     ac2:	8f 5f       	subi	r24, 0xFF	; 255
     ac4:	9f 4f       	sbci	r25, 0xFF	; 255
     ac6:	49 f0       	breq	.+18     	; 0xada <nmea_rx_update+0x34>
				nmea_err++;
     ac8:	80 91 88 02 	lds	r24, 0x0288
     acc:	90 91 89 02 	lds	r25, 0x0289
     ad0:	01 96       	adiw	r24, 0x01	; 1
     ad2:	90 93 89 02 	sts	0x0289, r25
     ad6:	80 93 88 02 	sts	0x0288, r24
			}
			rx_len = 0;
     ada:	10 92 2d 03 	sts	0x032D, r1
     ade:	10 92 2c 03 	sts	0x032C, r1
     ae2:	7e c0       	rjmp	.+252    	; 0xbe0 <nmea_rx_update+0x13a>
		}
		else if (c==CHAR_CR || c==CHAR_LF) /* end of message */
     ae4:	8d 30       	cpi	r24, 0x0D	; 13
     ae6:	19 f0       	breq	.+6      	; 0xaee <nmea_rx_update+0x48>
     ae8:	8a 30       	cpi	r24, 0x0A	; 10
     aea:	09 f0       	breq	.+2      	; 0xaee <nmea_rx_update+0x48>
     aec:	58 c0       	rjmp	.+176    	; 0xb9e <nmea_rx_update+0xf8>
		{
			if (rx_len >= 4) {
     aee:	a0 91 2c 03 	lds	r26, 0x032C
     af2:	b0 91 2d 03 	lds	r27, 0x032D
     af6:	a4 30       	cpi	r26, 0x04	; 4
     af8:	b1 05       	cpc	r27, r1
     afa:	0c f4       	brge	.+2      	; 0xafe <nmea_rx_update+0x58>
     afc:	4b c0       	rjmp	.+150    	; 0xb94 <nmea_rx_update+0xee>
	short i;

	/* assume that $, CR and LF are not present the buffer */
	
	/* check if a checksum is present */
	if (rx_len >= 9 && rx[rx_len-3] == '*') /* contains at least "$XXXXX,*HH" */
     afe:	a9 30       	cpi	r26, 0x09	; 9
     b00:	b1 05       	cpc	r27, r1
     b02:	ec f1       	brlt	.+122    	; 0xb7e <nmea_rx_update+0xd8>
     b04:	fd 01       	movw	r30, r26
     b06:	ed 51       	subi	r30, 0x1D	; 29
     b08:	fe 4f       	sbci	r31, 0xFE	; 254
     b0a:	80 81       	ld	r24, Z
     b0c:	8a 32       	cpi	r24, 0x2A	; 42
     b0e:	09 f0       	breq	.+2      	; 0xb12 <nmea_rx_update+0x6c>
     b10:	6d c0       	rjmp	.+218    	; 0xbec <nmea_rx_update+0x146>
     b12:	e6 ee       	ldi	r30, 0xE6	; 230
     b14:	f1 e0       	ldi	r31, 0x01	; 1
     b16:	90 e0       	ldi	r25, 0x00	; 0
	{
		/* calculate the checksum */
		for (i=0; i<rx_len-3; i++)
     b18:	9d 01       	movw	r18, r26
     b1a:	2d 51       	subi	r18, 0x1D	; 29
     b1c:	3e 4f       	sbci	r19, 0xFE	; 254
     b1e:	02 c0       	rjmp	.+4      	; 0xb24 <nmea_rx_update+0x7e>
			cs_calc ^= rx[i];
     b20:	81 91       	ld	r24, Z+
     b22:	98 27       	eor	r25, r24
	
	/* check if a checksum is present */
	if (rx_len >= 9 && rx[rx_len-3] == '*') /* contains at least "$XXXXX,*HH" */
	{
		/* calculate the checksum */
		for (i=0; i<rx_len-3; i++)
     b24:	e2 17       	cp	r30, r18
     b26:	f3 07       	cpc	r31, r19
     b28:	d9 f7       	brne	.-10     	; 0xb20 <nmea_rx_update+0x7a>
			cs_calc ^= rx[i];

		/* retrieve the checksum */
		cs_recv = hexval (rx[rx_len-2]) << 4 | hexval (rx[rx_len-1]);
     b2a:	fd 01       	movw	r30, r26
     b2c:	ec 51       	subi	r30, 0x1C	; 28
     b2e:	fe 4f       	sbci	r31, 0xFE	; 254
     b30:	e0 81       	ld	r30, Z
}
/***************************************************************************/
static unsigned char hexval (char c)
{
	unsigned char v = 0;
	if (c <= '9')
     b32:	ea 33       	cpi	r30, 0x3A	; 58
     b34:	18 f4       	brcc	.+6      	; 0xb3c <nmea_rx_update+0x96>
		v = c-'0';
     b36:	8e 2f       	mov	r24, r30
     b38:	80 53       	subi	r24, 0x30	; 48
     b3a:	0b c0       	rjmp	.+22     	; 0xb52 <nmea_rx_update+0xac>
	else if (c <= 'F')
     b3c:	e7 34       	cpi	r30, 0x47	; 71
     b3e:	18 f4       	brcc	.+6      	; 0xb46 <nmea_rx_update+0xa0>
		v = c+10-'A';
     b40:	8e 2f       	mov	r24, r30
     b42:	87 53       	subi	r24, 0x37	; 55
     b44:	06 c0       	rjmp	.+12     	; 0xb52 <nmea_rx_update+0xac>
	else if (c <= 'f')
     b46:	e7 36       	cpi	r30, 0x67	; 103
     b48:	10 f0       	brcs	.+4      	; 0xb4e <nmea_rx_update+0xa8>
     b4a:	80 e0       	ldi	r24, 0x00	; 0
     b4c:	02 c0       	rjmp	.+4      	; 0xb52 <nmea_rx_update+0xac>
		v = c+10-'a';
     b4e:	8e 2f       	mov	r24, r30
     b50:	87 55       	subi	r24, 0x57	; 87
		/* calculate the checksum */
		for (i=0; i<rx_len-3; i++)
			cs_calc ^= rx[i];

		/* retrieve the checksum */
		cs_recv = hexval (rx[rx_len-2]) << 4 | hexval (rx[rx_len-1]);
     b52:	ab 51       	subi	r26, 0x1B	; 27
     b54:	be 4f       	sbci	r27, 0xFE	; 254
     b56:	ec 91       	ld	r30, X
}
/***************************************************************************/
static unsigned char hexval (char c)
{
	unsigned char v = 0;
	if (c <= '9')
     b58:	ea 33       	cpi	r30, 0x3A	; 58
     b5a:	10 f4       	brcc	.+4      	; 0xb60 <nmea_rx_update+0xba>
		v = c-'0';
     b5c:	e0 53       	subi	r30, 0x30	; 48
     b5e:	09 c0       	rjmp	.+18     	; 0xb72 <nmea_rx_update+0xcc>
	else if (c <= 'F')
     b60:	e7 34       	cpi	r30, 0x47	; 71
     b62:	10 f4       	brcc	.+4      	; 0xb68 <nmea_rx_update+0xc2>
		v = c+10-'A';
     b64:	e7 53       	subi	r30, 0x37	; 55
     b66:	05 c0       	rjmp	.+10     	; 0xb72 <nmea_rx_update+0xcc>
	else if (c <= 'f')
     b68:	e7 36       	cpi	r30, 0x67	; 103
     b6a:	10 f0       	brcs	.+4      	; 0xb70 <nmea_rx_update+0xca>
     b6c:	e0 e0       	ldi	r30, 0x00	; 0
     b6e:	01 c0       	rjmp	.+2      	; 0xb72 <nmea_rx_update+0xcc>
		v = c+10-'a';
     b70:	e7 55       	subi	r30, 0x57	; 87
		for (i=0; i<rx_len-3; i++)
			cs_calc ^= rx[i];

		/* retrieve the checksum */
		cs_recv = hexval (rx[rx_len-2]) << 4 | hexval (rx[rx_len-1]);
		if (cs_calc == cs_recv)
     b72:	82 95       	swap	r24
     b74:	80 7f       	andi	r24, 0xF0	; 240
     b76:	8e 2b       	or	r24, r30
     b78:	98 17       	cp	r25, r24
     b7a:	19 f4       	brne	.+6      	; 0xb82 <nmea_rx_update+0xdc>
     b7c:	37 c0       	rjmp	.+110    	; 0xbec <nmea_rx_update+0x146>
			csok = 1;
	}
	/* no checksum */
	else if (rx_len >= 6) /* contains at least "$XXXXX," */
     b7e:	16 97       	sbiw	r26, 0x06	; 6
     b80:	ac f5       	brge	.+106    	; 0xbec <nmea_rx_update+0x146>
			if (rx_len >= 4) {
				if (nmea_rx_validate())
					nmea_rx_parse();
				else
				{
					nmea_err++; 
     b82:	80 91 88 02 	lds	r24, 0x0288
     b86:	90 91 89 02 	lds	r25, 0x0289
     b8a:	01 96       	adiw	r24, 0x01	; 1
     b8c:	90 93 89 02 	sts	0x0289, r25
     b90:	80 93 88 02 	sts	0x0288, r24
/* tx_inbuf(); */
				}
			}
			rx_len = -1; /* waiting for next start of message */
     b94:	d0 93 2d 03 	sts	0x032D, r29
     b98:	c0 93 2c 03 	sts	0x032C, r28
     b9c:	21 c0       	rjmp	.+66     	; 0xbe0 <nmea_rx_update+0x13a>
		}
		else if (rx_len != -1) {
     b9e:	80 91 2c 03 	lds	r24, 0x032C
     ba2:	90 91 2d 03 	lds	r25, 0x032D
     ba6:	3f ef       	ldi	r19, 0xFF	; 255
     ba8:	8f 3f       	cpi	r24, 0xFF	; 255
     baa:	93 07       	cpc	r25, r19
     bac:	c9 f0       	breq	.+50     	; 0xbe0 <nmea_rx_update+0x13a>
			/* copy anything but $ and CR LF to the buffer */
			rx[rx_len++] = c;
     bae:	fc 01       	movw	r30, r24
     bb0:	ea 51       	subi	r30, 0x1A	; 26
     bb2:	fe 4f       	sbci	r31, 0xFE	; 254
     bb4:	20 83       	st	Z, r18
     bb6:	01 96       	adiw	r24, 0x01	; 1
     bb8:	90 93 2d 03 	sts	0x032D, r25
     bbc:	80 93 2c 03 	sts	0x032C, r24
			if (rx_len == RXBUF_SIZE) { /* buffer overflow error */
     bc0:	80 3a       	cpi	r24, 0xA0	; 160
     bc2:	91 05       	cpc	r25, r1
     bc4:	69 f4       	brne	.+26     	; 0xbe0 <nmea_rx_update+0x13a>
				rx_len = -1; /* waiting for next start of message */
     bc6:	d0 93 2d 03 	sts	0x032D, r29
     bca:	c0 93 2c 03 	sts	0x032C, r28
				nmea_err++;
     bce:	80 91 88 02 	lds	r24, 0x0288
     bd2:	90 91 89 02 	lds	r25, 0x0289
     bd6:	01 96       	adiw	r24, 0x01	; 1
     bd8:	90 93 89 02 	sts	0x0289, r25
     bdc:	80 93 88 02 	sts	0x0288, r24
}

void nmea_rx_update(void)
{
	/* update nmea buffer */
	while (serial_rx_avail())
     be0:	0e 94 97 01 	call	0x32e	; 0x32e <serial_rx_avail>
     be4:	88 23       	and	r24, r24
     be6:	09 f0       	breq	.+2      	; 0xbea <nmea_rx_update+0x144>
     be8:	63 cf       	rjmp	.-314    	; 0xab0 <nmea_rx_update+0xa>
     bea:	03 c0       	rjmp	.+6      	; 0xbf2 <nmea_rx_update+0x14c>
		}
		else if (c==CHAR_CR || c==CHAR_LF) /* end of message */
		{
			if (rx_len >= 4) {
				if (nmea_rx_validate())
					nmea_rx_parse();
     bec:	0e 94 a1 03 	call	0x742	; 0x742 <nmea_rx_parse>
     bf0:	d1 cf       	rjmp	.-94     	; 0xb94 <nmea_rx_update+0xee>
				rx_len = -1; /* waiting for next start of message */
				nmea_err++;
			}
		}
	}
}
     bf2:	df 91       	pop	r29
     bf4:	cf 91       	pop	r28
     bf6:	08 95       	ret

00000bf8 <tx_inbuf>:
	}
	return val;
}
/***************************************************************************/
void tx_inbuf(void)
{
     bf8:	cf 93       	push	r28
     bfa:	df 93       	push	r29
	if (rx_len > 0)
     bfc:	80 91 2c 03 	lds	r24, 0x032C
     c00:	90 91 2d 03 	lds	r25, 0x032D
     c04:	18 16       	cp	r1, r24
     c06:	19 06       	cpc	r1, r25
     c08:	64 f5       	brge	.+88     	; 0xc62 <tx_inbuf+0x6a>
	{
		short i;
		serial_tx ('$');		
     c0a:	84 e2       	ldi	r24, 0x24	; 36
     c0c:	0e 94 30 01 	call	0x260	; 0x260 <serial_tx>
		serial_tx ('E');		
     c10:	85 e4       	ldi	r24, 0x45	; 69
     c12:	0e 94 30 01 	call	0x260	; 0x260 <serial_tx>
		serial_tx ('E');		
     c16:	85 e4       	ldi	r24, 0x45	; 69
     c18:	0e 94 30 01 	call	0x260	; 0x260 <serial_tx>
		serial_tx ('E');		
     c1c:	85 e4       	ldi	r24, 0x45	; 69
     c1e:	0e 94 30 01 	call	0x260	; 0x260 <serial_tx>
		serial_tx ('E');		
     c22:	85 e4       	ldi	r24, 0x45	; 69
     c24:	0e 94 30 01 	call	0x260	; 0x260 <serial_tx>
		serial_tx ('E');		
     c28:	85 e4       	ldi	r24, 0x45	; 69
     c2a:	0e 94 30 01 	call	0x260	; 0x260 <serial_tx>
		serial_tx (',');		
     c2e:	8c e2       	ldi	r24, 0x2C	; 44
     c30:	0e 94 30 01 	call	0x260	; 0x260 <serial_tx>
     c34:	c0 e0       	ldi	r28, 0x00	; 0
     c36:	d0 e0       	ldi	r29, 0x00	; 0
     c38:	07 c0       	rjmp	.+14     	; 0xc48 <tx_inbuf+0x50>
		for (i=0; i< rx_len; i++)
			serial_tx (rx[i]);		
     c3a:	fe 01       	movw	r30, r28
     c3c:	ea 51       	subi	r30, 0x1A	; 26
     c3e:	fe 4f       	sbci	r31, 0xFE	; 254
     c40:	80 81       	ld	r24, Z
     c42:	0e 94 30 01 	call	0x260	; 0x260 <serial_tx>
		serial_tx ('E');		
		serial_tx ('E');		
		serial_tx ('E');		
		serial_tx ('E');		
		serial_tx (',');		
		for (i=0; i< rx_len; i++)
     c46:	21 96       	adiw	r28, 0x01	; 1
     c48:	80 91 2c 03 	lds	r24, 0x032C
     c4c:	90 91 2d 03 	lds	r25, 0x032D
     c50:	c8 17       	cp	r28, r24
     c52:	d9 07       	cpc	r29, r25
     c54:	94 f3       	brlt	.-28     	; 0xc3a <tx_inbuf+0x42>
			serial_tx (rx[i]);		
		serial_tx (13);		
     c56:	8d e0       	ldi	r24, 0x0D	; 13
     c58:	0e 94 30 01 	call	0x260	; 0x260 <serial_tx>
		serial_tx (10);		
     c5c:	8a e0       	ldi	r24, 0x0A	; 10
     c5e:	0e 94 30 01 	call	0x260	; 0x260 <serial_tx>
	} 
}
     c62:	df 91       	pop	r29
     c64:	cf 91       	pop	r28
     c66:	08 95       	ret

00000c68 <nmea_reset>:
short nmea_err;

/***************************************************************************/
void nmea_reset(void)
{
	rx_len = -1; /* wait for next $ */
     c68:	8f ef       	ldi	r24, 0xFF	; 255
     c6a:	9f ef       	ldi	r25, 0xFF	; 255
     c6c:	90 93 2d 03 	sts	0x032D, r25
     c70:	80 93 2c 03 	sts	0x032C, r24
	nmea_err = 0; /* reset serial error flag */
     c74:	10 92 89 02 	sts	0x0289, r1
     c78:	10 92 88 02 	sts	0x0288, r1
	serial_tx (13);		
     c7c:	8d e0       	ldi	r24, 0x0D	; 13
     c7e:	0e 94 30 01 	call	0x260	; 0x260 <serial_tx>
	serial_tx (10);		
     c82:	8a e0       	ldi	r24, 0x0A	; 10
     c84:	0e 94 30 01 	call	0x260	; 0x260 <serial_tx>
}
     c88:	08 95       	ret

00000c8a <nmea_rx_next_val>:
		csok = 1;
	return (csok);
}
/***************************************************************************/
short nmea_rx_next_val(void)
{
     c8a:	ff 92       	push	r15
     c8c:	0f 93       	push	r16
     c8e:	1f 93       	push	r17
     c90:	cf 93       	push	r28
     c92:	df 93       	push	r29
	short val = 0;
	if (rx[rx_ite] == ',' && rx[rx_ite+1] != ',')
     c94:	20 91 86 02 	lds	r18, 0x0286
     c98:	30 91 87 02 	lds	r19, 0x0287
     c9c:	f9 01       	movw	r30, r18
     c9e:	ea 51       	subi	r30, 0x1A	; 26
     ca0:	fe 4f       	sbci	r31, 0xFE	; 254
     ca2:	80 81       	ld	r24, Z
     ca4:	8c 32       	cpi	r24, 0x2C	; 44
     ca6:	a1 f5       	brne	.+104    	; 0xd10 <nmea_rx_next_val+0x86>
     ca8:	e9 01       	movw	r28, r18
     caa:	21 96       	adiw	r28, 0x01	; 1
     cac:	fe 01       	movw	r30, r28
     cae:	ea 51       	subi	r30, 0x1A	; 26
     cb0:	fe 4f       	sbci	r31, 0xFE	; 254
     cb2:	80 81       	ld	r24, Z
     cb4:	8c 32       	cpi	r24, 0x2C	; 44
     cb6:	61 f1       	breq	.+88     	; 0xd10 <nmea_rx_next_val+0x86>
	{
		short i = rx_ite+1;
		char tmp;
		while (i < rx_len && rx[i] != ',' && rx[i] != '*')
     cb8:	40 91 2c 03 	lds	r20, 0x032C
     cbc:	50 91 2d 03 	lds	r21, 0x032D
     cc0:	01 c0       	rjmp	.+2      	; 0xcc4 <nmea_rx_next_val+0x3a>
			i++;
     cc2:	21 96       	adiw	r28, 0x01	; 1
	short val = 0;
	if (rx[rx_ite] == ',' && rx[rx_ite+1] != ',')
	{
		short i = rx_ite+1;
		char tmp;
		while (i < rx_len && rx[i] != ',' && rx[i] != '*')
     cc4:	c4 17       	cp	r28, r20
     cc6:	d5 07       	cpc	r29, r21
     cc8:	34 f4       	brge	.+12     	; 0xcd6 <nmea_rx_next_val+0x4c>
     cca:	80 81       	ld	r24, Z
     ccc:	8c 32       	cpi	r24, 0x2C	; 44
     cce:	19 f0       	breq	.+6      	; 0xcd6 <nmea_rx_next_val+0x4c>
     cd0:	31 96       	adiw	r30, 0x01	; 1
     cd2:	8a 32       	cpi	r24, 0x2A	; 42
     cd4:	b1 f7       	brne	.-20     	; 0xcc2 <nmea_rx_next_val+0x38>
			i++;
		tmp = rx[i];
     cd6:	8e 01       	movw	r16, r28
     cd8:	0a 51       	subi	r16, 0x1A	; 26
     cda:	1e 4f       	sbci	r17, 0xFE	; 254
     cdc:	f8 01       	movw	r30, r16
     cde:	f0 80       	ld	r15, Z
		rx[i] = 0;
     ce0:	10 82       	st	Z, r1
		val = atoi (rx+rx_ite+1);
     ce2:	c9 01       	movw	r24, r18
     ce4:	89 51       	subi	r24, 0x19	; 25
     ce6:	9e 4f       	sbci	r25, 0xFE	; 254
     ce8:	0e 94 cc 07 	call	0xf98	; 0xf98 <atoi>
     cec:	9c 01       	movw	r18, r24
		rx[i] = tmp;
     cee:	f8 01       	movw	r30, r16
     cf0:	f0 82       	st	Z, r15
		if (tmp == ',')
     cf2:	fc e2       	ldi	r31, 0x2C	; 44
     cf4:	ff 16       	cp	r15, r31
     cf6:	29 f4       	brne	.+10     	; 0xd02 <nmea_rx_next_val+0x78>
			rx_ite = i;
     cf8:	d0 93 87 02 	sts	0x0287, r29
     cfc:	c0 93 86 02 	sts	0x0286, r28
     d00:	09 c0       	rjmp	.+18     	; 0xd14 <nmea_rx_next_val+0x8a>
		else
			rx_ite = -1;
     d02:	8f ef       	ldi	r24, 0xFF	; 255
     d04:	9f ef       	ldi	r25, 0xFF	; 255
     d06:	90 93 87 02 	sts	0x0287, r25
     d0a:	80 93 86 02 	sts	0x0286, r24
     d0e:	02 c0       	rjmp	.+4      	; 0xd14 <nmea_rx_next_val+0x8a>
     d10:	20 e0       	ldi	r18, 0x00	; 0
     d12:	30 e0       	ldi	r19, 0x00	; 0
	}
	return val;
}
     d14:	c9 01       	movw	r24, r18
     d16:	df 91       	pop	r29
     d18:	cf 91       	pop	r28
     d1a:	1f 91       	pop	r17
     d1c:	0f 91       	pop	r16
     d1e:	ff 90       	pop	r15
     d20:	08 95       	ret

00000d22 <LightHouse_Update>:
#include "LightHouse.h"

/***************************************************************************/

void LightHouse_Update(int red_command, int yellow_command, int green_command)
{
     d22:	9c 01       	movw	r18, r24
	if (0 != red_command){
     d24:	00 97       	sbiw	r24, 0x00	; 0
     d26:	d9 f0       	breq	.+54     	; 0xd5e <LightHouse_Update+0x3c>
		if (red_command > 9 ){
     d28:	8a 30       	cpi	r24, 0x0A	; 10
     d2a:	91 05       	cpc	r25, r1
     d2c:	24 f0       	brlt	.+8      	; 0xd36 <LightHouse_Update+0x14>
			next_light_state = RED_sollid ;
     d2e:	84 e0       	ldi	r24, 0x04	; 4
     d30:	80 93 de 01 	sts	0x01DE, r24
     d34:	02 c0       	rjmp	.+4      	; 0xd3a <LightHouse_Update+0x18>
		}
		else{	
		next_light_state = RED_flash ;
     d36:	10 92 de 01 	sts	0x01DE, r1
		}

		if(flash_running == 0){
     d3a:	80 91 dd 01 	lds	r24, 0x01DD
     d3e:	88 23       	and	r24, r24
     d40:	59 f0       	breq	.+22     	; 0xd58 <LightHouse_Update+0x36>
			red_signal = red_command;
			}
		else if (red_count < red_command && red_command < 10){
     d42:	80 91 be 01 	lds	r24, 0x01BE
     d46:	90 e0       	ldi	r25, 0x00	; 0
     d48:	82 17       	cp	r24, r18
     d4a:	93 07       	cpc	r25, r19
     d4c:	0c f0       	brlt	.+2      	; 0xd50 <LightHouse_Update+0x2e>
     d4e:	43 c0       	rjmp	.+134    	; 0xdd6 <LightHouse_Update+0xb4>
     d50:	2a 30       	cpi	r18, 0x0A	; 10
     d52:	31 05       	cpc	r19, r1
     d54:	0c f0       	brlt	.+2      	; 0xd58 <LightHouse_Update+0x36>
     d56:	3f c0       	rjmp	.+126    	; 0xdd6 <LightHouse_Update+0xb4>
			red_signal = red_command;
     d58:	20 93 e3 01 	sts	0x01E3, r18
     d5c:	3c c0       	rjmp	.+120    	; 0xdd6 <LightHouse_Update+0xb4>
			}
		}

	else if (0 != yellow_command){
     d5e:	61 15       	cp	r22, r1
     d60:	71 05       	cpc	r23, r1
     d62:	c1 f0       	breq	.+48     	; 0xd94 <LightHouse_Update+0x72>
		if (yellow_command > 9 ){
     d64:	6a 30       	cpi	r22, 0x0A	; 10
     d66:	71 05       	cpc	r23, r1
     d68:	14 f0       	brlt	.+4      	; 0xd6e <LightHouse_Update+0x4c>
			next_light_state = YELLOW_sollid ;
     d6a:	85 e0       	ldi	r24, 0x05	; 5
     d6c:	01 c0       	rjmp	.+2      	; 0xd70 <LightHouse_Update+0x4e>
		}
		else{	
		next_light_state = YELLOW_flash;
     d6e:	81 e0       	ldi	r24, 0x01	; 1
     d70:	80 93 de 01 	sts	0x01DE, r24
		}

		if(flash_running == 0){
     d74:	80 91 dd 01 	lds	r24, 0x01DD
     d78:	88 23       	and	r24, r24
     d7a:	49 f0       	breq	.+18     	; 0xd8e <LightHouse_Update+0x6c>
			yellow_signal = yellow_command;
			}
		else if (yellow_count < yellow_command && yellow_command < 10){
     d7c:	80 91 b3 01 	lds	r24, 0x01B3
     d80:	90 e0       	ldi	r25, 0x00	; 0
     d82:	86 17       	cp	r24, r22
     d84:	97 07       	cpc	r25, r23
     d86:	3c f5       	brge	.+78     	; 0xdd6 <LightHouse_Update+0xb4>
     d88:	6a 30       	cpi	r22, 0x0A	; 10
     d8a:	71 05       	cpc	r23, r1
     d8c:	24 f5       	brge	.+72     	; 0xdd6 <LightHouse_Update+0xb4>
			yellow_signal = yellow_command;
     d8e:	60 93 e2 01 	sts	0x01E2, r22
     d92:	21 c0       	rjmp	.+66     	; 0xdd6 <LightHouse_Update+0xb4>
			}
		}

	else if (0 != green_command){
     d94:	41 15       	cp	r20, r1
     d96:	51 05       	cpc	r21, r1
     d98:	c1 f0       	breq	.+48     	; 0xdca <LightHouse_Update+0xa8>
				if (green_command > 9 ){
     d9a:	4a 30       	cpi	r20, 0x0A	; 10
     d9c:	51 05       	cpc	r21, r1
     d9e:	14 f0       	brlt	.+4      	; 0xda4 <LightHouse_Update+0x82>
			next_light_state = GREEN_sollid ;
     da0:	86 e0       	ldi	r24, 0x06	; 6
     da2:	01 c0       	rjmp	.+2      	; 0xda6 <LightHouse_Update+0x84>
		}
		else{	
		next_light_state = GREEN_flash;
     da4:	82 e0       	ldi	r24, 0x02	; 2
     da6:	80 93 de 01 	sts	0x01DE, r24
		}

		if(flash_running == 0){
     daa:	80 91 dd 01 	lds	r24, 0x01DD
     dae:	88 23       	and	r24, r24
     db0:	49 f0       	breq	.+18     	; 0xdc4 <LightHouse_Update+0xa2>
			green_signal = green_command;
			}
		else if (green_count < green_command && green_command < 10){
     db2:	80 91 e1 01 	lds	r24, 0x01E1
     db6:	90 e0       	ldi	r25, 0x00	; 0
     db8:	84 17       	cp	r24, r20
     dba:	95 07       	cpc	r25, r21
     dbc:	64 f4       	brge	.+24     	; 0xdd6 <LightHouse_Update+0xb4>
     dbe:	4a 30       	cpi	r20, 0x0A	; 10
     dc0:	51 05       	cpc	r21, r1
     dc2:	4c f4       	brge	.+18     	; 0xdd6 <LightHouse_Update+0xb4>
			green_signal = green_command;
     dc4:	40 93 af 01 	sts	0x01AF, r20
     dc8:	06 c0       	rjmp	.+12     	; 0xdd6 <LightHouse_Update+0xb4>
			}
		}
	else {
			red_signal = 0;
     dca:	10 92 e3 01 	sts	0x01E3, r1
			yellow_signal = 0;
     dce:	10 92 e2 01 	sts	0x01E2, r1
			green_signal = 0;
     dd2:	10 92 af 01 	sts	0x01AF, r1

	}
	

	if (flash_running == 0){
     dd6:	80 91 dd 01 	lds	r24, 0x01DD
     dda:	88 23       	and	r24, r24
     ddc:	89 f4       	brne	.+34     	; 0xe00 <LightHouse_Update+0xde>

		if (solid_running == 1){
     dde:	80 91 df 01 	lds	r24, 0x01DF
     de2:	81 30       	cpi	r24, 0x01	; 1
     de4:	49 f4       	brne	.+18     	; 0xdf8 <LightHouse_Update+0xd6>
			if (next_light_state != light_state){
     de6:	90 91 de 01 	lds	r25, 0x01DE
     dea:	80 91 bd 01 	lds	r24, 0x01BD
     dee:	98 17       	cp	r25, r24
     df0:	19 f0       	breq	.+6      	; 0xdf8 <LightHouse_Update+0xd6>
				next_light_state = OFF_ALL;
     df2:	87 e0       	ldi	r24, 0x07	; 7
     df4:	80 93 de 01 	sts	0x01DE, r24
			}
		}

		light_state = next_light_state ;
     df8:	80 91 de 01 	lds	r24, 0x01DE
     dfc:	80 93 bd 01 	sts	0x01BD, r24

	}



	switch (light_state)
     e00:	30 91 bd 01 	lds	r19, 0x01BD
     e04:	34 30       	cpi	r19, 0x04	; 4
     e06:	c9 f0       	breq	.+50     	; 0xe3a <LightHouse_Update+0x118>
     e08:	35 30       	cpi	r19, 0x05	; 5
     e0a:	48 f4       	brcc	.+18     	; 0xe1e <LightHouse_Update+0xfc>
     e0c:	31 30       	cpi	r19, 0x01	; 1
     e0e:	09 f4       	brne	.+2      	; 0xe12 <LightHouse_Update+0xf0>
     e10:	4d c0       	rjmp	.+154    	; 0xeac <LightHouse_Update+0x18a>
     e12:	31 30       	cpi	r19, 0x01	; 1
     e14:	d0 f0       	brcs	.+52     	; 0xe4a <LightHouse_Update+0x128>
     e16:	32 30       	cpi	r19, 0x02	; 2
     e18:	09 f0       	breq	.+2      	; 0xe1c <LightHouse_Update+0xfa>
     e1a:	a3 c0       	rjmp	.+326    	; 0xf62 <LightHouse_Update+0x240>
     e1c:	79 c0       	rjmp	.+242    	; 0xf10 <LightHouse_Update+0x1ee>
     e1e:	36 30       	cpi	r19, 0x06	; 6
     e20:	09 f4       	brne	.+2      	; 0xe24 <LightHouse_Update+0x102>
     e22:	6b c0       	rjmp	.+214    	; 0xefa <LightHouse_Update+0x1d8>
     e24:	36 30       	cpi	r19, 0x06	; 6
     e26:	d0 f1       	brcs	.+116    	; 0xe9c <LightHouse_Update+0x17a>
     e28:	37 30       	cpi	r19, 0x07	; 7
     e2a:	09 f0       	breq	.+2      	; 0xe2e <LightHouse_Update+0x10c>
     e2c:	9a c0       	rjmp	.+308    	; 0xf62 <LightHouse_Update+0x240>
	{
		case OFF_ALL:
			INT_RED_OFF;
     e2e:	11 98       	cbi	0x02, 1	; 2
			INT_YELLOW_OFF;
     e30:	12 98       	cbi	0x02, 2	; 2
			INT_GREEN_OFF;
     e32:	13 98       	cbi	0x02, 3	; 2
			solid_running = 0;
     e34:	10 92 df 01 	sts	0x01DF, r1
     e38:	08 95       	ret
			break;

		case RED_sollid:
			INT_RED_ON;
     e3a:	11 9a       	sbi	0x02, 1	; 2
			INT_YELLOW_OFF;
     e3c:	12 98       	cbi	0x02, 2	; 2
			INT_GREEN_OFF;
     e3e:	13 98       	cbi	0x02, 3	; 2
			yellow_signal = 0;
     e40:	10 92 e2 01 	sts	0x01E2, r1
			green_signal = 0;
     e44:	10 92 af 01 	sts	0x01AF, r1
     e48:	5f c0       	rjmp	.+190    	; 0xf08 <LightHouse_Update+0x1e6>
			solid_running = 1;
			break;

		case RED_flash:
			yellow_signal = 0;
     e4a:	10 92 e2 01 	sts	0x01E2, r1
			green_signal = 0;
     e4e:	10 92 af 01 	sts	0x01AF, r1
			flash_running = 1;
     e52:	91 e0       	ldi	r25, 0x01	; 1
     e54:	90 93 dd 01 	sts	0x01DD, r25
			switch (red_state) {
     e58:	80 91 e0 01 	lds	r24, 0x01E0
     e5c:	88 23       	and	r24, r24
     e5e:	39 f0       	breq	.+14     	; 0xe6e <LightHouse_Update+0x14c>
     e60:	81 30       	cpi	r24, 0x01	; 1
     e62:	09 f0       	breq	.+2      	; 0xe66 <LightHouse_Update+0x144>
     e64:	81 c0       	rjmp	.+258    	; 0xf68 <LightHouse_Update+0x246>
				case RED_STATE_ON:
					red_state = RED_STATE_OFF;
     e66:	10 92 e0 01 	sts	0x01E0, r1
					INT_RED_OFF;
     e6a:	11 98       	cbi	0x02, 1	; 2
     e6c:	08 95       	ret
					break;

				case RED_STATE_OFF:
					red_count++;
     e6e:	20 91 be 01 	lds	r18, 0x01BE
     e72:	2f 5f       	subi	r18, 0xFF	; 255
     e74:	20 93 be 01 	sts	0x01BE, r18
					if (red_count <= red_signal) {
     e78:	80 91 e3 01 	lds	r24, 0x01E3
     e7c:	82 17       	cp	r24, r18
     e7e:	20 f0       	brcs	.+8      	; 0xe88 <LightHouse_Update+0x166>
						INT_RED_ON;
     e80:	11 9a       	sbi	0x02, 1	; 2
						red_state = RED_STATE_ON;
     e82:	90 93 e0 01 	sts	0x01E0, r25
     e86:	08 95       	ret
					}
					else if (red_count > red_signal + RED_DELAY) {
     e88:	30 e0       	ldi	r19, 0x00	; 0
     e8a:	90 e0       	ldi	r25, 0x00	; 0
     e8c:	04 96       	adiw	r24, 0x04	; 4
     e8e:	82 17       	cp	r24, r18
     e90:	93 07       	cpc	r25, r19
     e92:	0c f0       	brlt	.+2      	; 0xe96 <LightHouse_Update+0x174>
     e94:	69 c0       	rjmp	.+210    	; 0xf68 <LightHouse_Update+0x246>
						red_count = 0;
     e96:	10 92 be 01 	sts	0x01BE, r1
     e9a:	60 c0       	rjmp	.+192    	; 0xf5c <LightHouse_Update+0x23a>
					break;
			}
			break;

		case YELLOW_sollid:
			red_signal = 0;
     e9c:	10 92 e3 01 	sts	0x01E3, r1
			green_signal = 0;
     ea0:	10 92 af 01 	sts	0x01AF, r1
			INT_RED_OFF;
     ea4:	11 98       	cbi	0x02, 1	; 2
			INT_YELLOW_ON;
     ea6:	12 9a       	sbi	0x02, 2	; 2
			INT_GREEN_OFF;
     ea8:	13 98       	cbi	0x02, 3	; 2
     eaa:	2e c0       	rjmp	.+92     	; 0xf08 <LightHouse_Update+0x1e6>
			solid_running = 1;
			break;

		case YELLOW_flash:
			red_signal = 0;
     eac:	10 92 e3 01 	sts	0x01E3, r1
			green_signal = 0;
     eb0:	10 92 af 01 	sts	0x01AF, r1
			flash_running = 1;
     eb4:	30 93 dd 01 	sts	0x01DD, r19
			switch (yellow_state) {
     eb8:	80 91 b1 01 	lds	r24, 0x01B1
     ebc:	88 23       	and	r24, r24
     ebe:	39 f0       	breq	.+14     	; 0xece <LightHouse_Update+0x1ac>
     ec0:	81 30       	cpi	r24, 0x01	; 1
     ec2:	09 f0       	breq	.+2      	; 0xec6 <LightHouse_Update+0x1a4>
     ec4:	51 c0       	rjmp	.+162    	; 0xf68 <LightHouse_Update+0x246>
				case YELLOW_STATE_ON:
					yellow_state = YELLOW_STATE_OFF;
     ec6:	10 92 b1 01 	sts	0x01B1, r1
					INT_YELLOW_OFF;
     eca:	12 98       	cbi	0x02, 2	; 2
     ecc:	08 95       	ret
					break;

				case YELLOW_STATE_OFF:
					yellow_count++;
     ece:	20 91 b3 01 	lds	r18, 0x01B3
     ed2:	2f 5f       	subi	r18, 0xFF	; 255
     ed4:	20 93 b3 01 	sts	0x01B3, r18
					if (yellow_count <= yellow_signal) {
     ed8:	80 91 e2 01 	lds	r24, 0x01E2
     edc:	82 17       	cp	r24, r18
     ede:	20 f0       	brcs	.+8      	; 0xee8 <LightHouse_Update+0x1c6>
						INT_YELLOW_ON;
     ee0:	12 9a       	sbi	0x02, 2	; 2
						yellow_state = YELLOW_STATE_ON;
     ee2:	30 93 b1 01 	sts	0x01B1, r19
     ee6:	08 95       	ret
					}
					else if (yellow_count > yellow_signal + YELLOW_DELAY) {
     ee8:	30 e0       	ldi	r19, 0x00	; 0
     eea:	90 e0       	ldi	r25, 0x00	; 0
     eec:	04 96       	adiw	r24, 0x04	; 4
     eee:	82 17       	cp	r24, r18
     ef0:	93 07       	cpc	r25, r19
     ef2:	d4 f5       	brge	.+116    	; 0xf68 <LightHouse_Update+0x246>
						yellow_count = 0;
     ef4:	10 92 b3 01 	sts	0x01B3, r1
     ef8:	31 c0       	rjmp	.+98     	; 0xf5c <LightHouse_Update+0x23a>
			}
			break;


		case GREEN_sollid:
			INT_RED_OFF;
     efa:	11 98       	cbi	0x02, 1	; 2
			INT_YELLOW_OFF;
     efc:	12 98       	cbi	0x02, 2	; 2
			INT_GREEN_ON;
     efe:	13 9a       	sbi	0x02, 3	; 2
			red_signal = 0;
     f00:	10 92 e3 01 	sts	0x01E3, r1
			yellow_signal = 0;
     f04:	10 92 e2 01 	sts	0x01E2, r1
			solid_running = 1;
     f08:	81 e0       	ldi	r24, 0x01	; 1
     f0a:	80 93 df 01 	sts	0x01DF, r24
     f0e:	08 95       	ret
			break;

		case GREEN_flash:
			red_signal = 0;
     f10:	10 92 e3 01 	sts	0x01E3, r1
			yellow_signal = 0;
     f14:	10 92 e2 01 	sts	0x01E2, r1
			flash_running = 1;
     f18:	91 e0       	ldi	r25, 0x01	; 1
     f1a:	90 93 dd 01 	sts	0x01DD, r25
			switch (green_state) {
     f1e:	80 91 cb 01 	lds	r24, 0x01CB
     f22:	88 23       	and	r24, r24
     f24:	31 f0       	breq	.+12     	; 0xf32 <LightHouse_Update+0x210>
     f26:	81 30       	cpi	r24, 0x01	; 1
     f28:	f9 f4       	brne	.+62     	; 0xf68 <LightHouse_Update+0x246>
				case GREEN_STATE_ON:
					green_state = GREEN_STATE_OFF;
     f2a:	10 92 cb 01 	sts	0x01CB, r1
					INT_GREEN_OFF;
     f2e:	13 98       	cbi	0x02, 3	; 2
     f30:	08 95       	ret
					break;

				case GREEN_STATE_OFF:
					green_count++;
     f32:	20 91 e1 01 	lds	r18, 0x01E1
     f36:	2f 5f       	subi	r18, 0xFF	; 255
     f38:	20 93 e1 01 	sts	0x01E1, r18
					if (green_count <= green_signal) {
     f3c:	80 91 af 01 	lds	r24, 0x01AF
     f40:	82 17       	cp	r24, r18
     f42:	20 f0       	brcs	.+8      	; 0xf4c <LightHouse_Update+0x22a>
						INT_GREEN_ON;
     f44:	13 9a       	sbi	0x02, 3	; 2
						green_state = GREEN_STATE_ON;
     f46:	90 93 cb 01 	sts	0x01CB, r25
     f4a:	08 95       	ret
					}
					else if (green_count > green_signal + GREEN_DELAY) {
     f4c:	30 e0       	ldi	r19, 0x00	; 0
     f4e:	90 e0       	ldi	r25, 0x00	; 0
     f50:	04 96       	adiw	r24, 0x04	; 4
     f52:	82 17       	cp	r24, r18
     f54:	93 07       	cpc	r25, r19
     f56:	44 f4       	brge	.+16     	; 0xf68 <LightHouse_Update+0x246>
						green_count = 0;
     f58:	10 92 e1 01 	sts	0x01E1, r1
						flash_running = 0;
     f5c:	10 92 dd 01 	sts	0x01DD, r1
     f60:	08 95       	ret
//				FroboLightHouse_GREEN_Update();
//				if ((flash_running == 0) && (flash_running == 0) && (flash_running == 0))
//					light_state = RED_flash;
//				break;
		default:
			light_state = 1;
     f62:	81 e0       	ldi	r24, 0x01	; 1
     f64:	80 93 bd 01 	sts	0x01BD, r24
     f68:	08 95       	ret

00000f6a <FroboLightHouse_RED_Update>:

}
void FroboLightHouse_RED_Update(void)
{

}
     f6a:	08 95       	ret

00000f6c <FroboLightHouse_YELLOW_Update>:
/***************************************************************************/
void FroboLightHouse_YELLOW_Update(void)
{}
     f6c:	08 95       	ret

00000f6e <FroboLightHouse_GREEN_Update>:
/***************************************************************************/
void FroboLightHouse_GREEN_Update(void)
{

}
     f6e:	08 95       	ret

00000f70 <__udivmodhi4>:
     f70:	aa 1b       	sub	r26, r26
     f72:	bb 1b       	sub	r27, r27
     f74:	51 e1       	ldi	r21, 0x11	; 17
     f76:	07 c0       	rjmp	.+14     	; 0xf86 <__udivmodhi4_ep>

00000f78 <__udivmodhi4_loop>:
     f78:	aa 1f       	adc	r26, r26
     f7a:	bb 1f       	adc	r27, r27
     f7c:	a6 17       	cp	r26, r22
     f7e:	b7 07       	cpc	r27, r23
     f80:	10 f0       	brcs	.+4      	; 0xf86 <__udivmodhi4_ep>
     f82:	a6 1b       	sub	r26, r22
     f84:	b7 0b       	sbc	r27, r23

00000f86 <__udivmodhi4_ep>:
     f86:	88 1f       	adc	r24, r24
     f88:	99 1f       	adc	r25, r25
     f8a:	5a 95       	dec	r21
     f8c:	a9 f7       	brne	.-22     	; 0xf78 <__udivmodhi4_loop>
     f8e:	80 95       	com	r24
     f90:	90 95       	com	r25
     f92:	bc 01       	movw	r22, r24
     f94:	cd 01       	movw	r24, r26
     f96:	08 95       	ret

00000f98 <atoi>:
     f98:	fc 01       	movw	r30, r24
     f9a:	88 27       	eor	r24, r24
     f9c:	99 27       	eor	r25, r25
     f9e:	e8 94       	clt
     fa0:	21 91       	ld	r18, Z+
     fa2:	20 32       	cpi	r18, 0x20	; 32
     fa4:	e9 f3       	breq	.-6      	; 0xfa0 <atoi+0x8>
     fa6:	29 30       	cpi	r18, 0x09	; 9
     fa8:	10 f0       	brcs	.+4      	; 0xfae <atoi+0x16>
     faa:	2e 30       	cpi	r18, 0x0E	; 14
     fac:	c8 f3       	brcs	.-14     	; 0xfa0 <atoi+0x8>
     fae:	2b 32       	cpi	r18, 0x2B	; 43
     fb0:	41 f0       	breq	.+16     	; 0xfc2 <atoi+0x2a>
     fb2:	2d 32       	cpi	r18, 0x2D	; 45
     fb4:	39 f4       	brne	.+14     	; 0xfc4 <atoi+0x2c>
     fb6:	68 94       	set
     fb8:	04 c0       	rjmp	.+8      	; 0xfc2 <atoi+0x2a>
     fba:	0e 94 0b 08 	call	0x1016	; 0x1016 <__mulhi_const_10>
     fbe:	82 0f       	add	r24, r18
     fc0:	91 1d       	adc	r25, r1
     fc2:	21 91       	ld	r18, Z+
     fc4:	20 53       	subi	r18, 0x30	; 48
     fc6:	2a 30       	cpi	r18, 0x0A	; 10
     fc8:	c0 f3       	brcs	.-16     	; 0xfba <atoi+0x22>
     fca:	1e f4       	brtc	.+6      	; 0xfd2 <atoi+0x3a>
     fcc:	90 95       	com	r25
     fce:	81 95       	neg	r24
     fd0:	9f 4f       	sbci	r25, 0xFF	; 255
     fd2:	08 95       	ret

00000fd4 <itoa>:
     fd4:	fb 01       	movw	r30, r22
     fd6:	9f 01       	movw	r18, r30
     fd8:	e8 94       	clt
     fda:	42 30       	cpi	r20, 0x02	; 2
     fdc:	c4 f0       	brlt	.+48     	; 0x100e <itoa+0x3a>
     fde:	45 32       	cpi	r20, 0x25	; 37
     fe0:	b4 f4       	brge	.+44     	; 0x100e <itoa+0x3a>
     fe2:	4a 30       	cpi	r20, 0x0A	; 10
     fe4:	29 f4       	brne	.+10     	; 0xff0 <itoa+0x1c>
     fe6:	97 fb       	bst	r25, 7
     fe8:	1e f4       	brtc	.+6      	; 0xff0 <itoa+0x1c>
     fea:	90 95       	com	r25
     fec:	81 95       	neg	r24
     fee:	9f 4f       	sbci	r25, 0xFF	; 255
     ff0:	64 2f       	mov	r22, r20
     ff2:	77 27       	eor	r23, r23
     ff4:	0e 94 b8 07 	call	0xf70	; 0xf70 <__udivmodhi4>
     ff8:	80 5d       	subi	r24, 0xD0	; 208
     ffa:	8a 33       	cpi	r24, 0x3A	; 58
     ffc:	0c f0       	brlt	.+2      	; 0x1000 <itoa+0x2c>
     ffe:	89 5d       	subi	r24, 0xD9	; 217
    1000:	81 93       	st	Z+, r24
    1002:	cb 01       	movw	r24, r22
    1004:	00 97       	sbiw	r24, 0x00	; 0
    1006:	a1 f7       	brne	.-24     	; 0xff0 <itoa+0x1c>
    1008:	16 f4       	brtc	.+4      	; 0x100e <itoa+0x3a>
    100a:	5d e2       	ldi	r21, 0x2D	; 45
    100c:	51 93       	st	Z+, r21
    100e:	10 82       	st	Z, r1
    1010:	c9 01       	movw	r24, r18
    1012:	0c 94 29 08 	jmp	0x1052	; 0x1052 <strrev>

00001016 <__mulhi_const_10>:
    1016:	7a e0       	ldi	r23, 0x0A	; 10
    1018:	97 9f       	mul	r25, r23
    101a:	90 2d       	mov	r25, r0
    101c:	87 9f       	mul	r24, r23
    101e:	80 2d       	mov	r24, r0
    1020:	91 0d       	add	r25, r1
    1022:	11 24       	eor	r1, r1
    1024:	08 95       	ret

00001026 <utoa>:
    1026:	fb 01       	movw	r30, r22
    1028:	9f 01       	movw	r18, r30
    102a:	42 30       	cpi	r20, 0x02	; 2
    102c:	74 f0       	brlt	.+28     	; 0x104a <utoa+0x24>
    102e:	45 32       	cpi	r20, 0x25	; 37
    1030:	64 f4       	brge	.+24     	; 0x104a <utoa+0x24>
    1032:	64 2f       	mov	r22, r20
    1034:	77 27       	eor	r23, r23
    1036:	0e 94 b8 07 	call	0xf70	; 0xf70 <__udivmodhi4>
    103a:	80 5d       	subi	r24, 0xD0	; 208
    103c:	8a 33       	cpi	r24, 0x3A	; 58
    103e:	0c f0       	brlt	.+2      	; 0x1042 <utoa+0x1c>
    1040:	89 5d       	subi	r24, 0xD9	; 217
    1042:	81 93       	st	Z+, r24
    1044:	cb 01       	movw	r24, r22
    1046:	00 97       	sbiw	r24, 0x00	; 0
    1048:	a1 f7       	brne	.-24     	; 0x1032 <utoa+0xc>
    104a:	10 82       	st	Z, r1
    104c:	c9 01       	movw	r24, r18
    104e:	0c 94 29 08 	jmp	0x1052	; 0x1052 <strrev>

00001052 <strrev>:
    1052:	dc 01       	movw	r26, r24
    1054:	fc 01       	movw	r30, r24
    1056:	67 2f       	mov	r22, r23
    1058:	71 91       	ld	r23, Z+
    105a:	77 23       	and	r23, r23
    105c:	e1 f7       	brne	.-8      	; 0x1056 <strrev+0x4>
    105e:	32 97       	sbiw	r30, 0x02	; 2
    1060:	04 c0       	rjmp	.+8      	; 0x106a <strrev+0x18>
    1062:	7c 91       	ld	r23, X
    1064:	6d 93       	st	X+, r22
    1066:	70 83       	st	Z, r23
    1068:	62 91       	ld	r22, -Z
    106a:	ae 17       	cp	r26, r30
    106c:	bf 07       	cpc	r27, r31
    106e:	c8 f3       	brcs	.-14     	; 0x1062 <strrev+0x10>
    1070:	08 95       	ret

00001072 <_exit>:
    1072:	f8 94       	cli

00001074 <__stop_program>:
    1074:	ff cf       	rjmp	.-2      	; 0x1074 <__stop_program>
